(lp0
(F1.793190913424218
S'Cell[3].dend[12] syn_ = new ExpSid(0.5)'
p1
I3
(dp2
S'seg'
p3
F0.5
sS'hostfrom'
p4
F0.0
sS'gid'
p5
I0
sS'coords'
p6
cnumpy.core.multiarray
_reconstruct
p7
(cnumpy
ndarray
p8
(I0
tp9
S'b'
p10
tp11
Rp12
(I1
(I3
tp13
cnumpy
dtype
p14
(S'f8'
p15
I0
I1
tp16
Rp17
(I3
S'<'
p18
NNNI-1
I-1
I0
tp19
bI00
S'(\xe5Gs9\x94E@h\xe6\xd9h\xd9\x07B\xc0dC\xd0c\xaf\x8e%\xc0'
p20
tp21
bsS'secnames'
p22
S'Cell[0].axon[78]'
p23
sI0
I13
tp24
a(F1.4927644158364728
S'Cell[0].dend[15] syn_ = new ExpSid(0.166666666667)'
p25
I0
(dp26
g3
F0.5
sg4
F0.0
sg5
I0
sg6
g7
(g8
(I0
tp27
g10
tp28
Rp29
(I1
(I3
tp30
g17
I00
S'H\x05[,0\x1b4\xc0\xf1v\xa2\xe6\xdb\xe98@\xb8r\xebde\xd0\xff\xbf'
p31
tp32
bsg22
S'Cell[0].axon[198]'
p33
sI0
I1
tp34
a(F2.0888909145421963
S'Cell[3].apic[23] syn_ = new ExpSid(0.1)'
p35
I3
(dp36
g3
F0.62
sg4
F0.0
sg5
I8
sg6
g7
(g8
(I0
tp37
g10
tp38
Rp39
(I1
(I3
tp40
g17
I00
S'&\xae/]|PQ@\xa5\xd6\x0c\xc7\xdfCj@tj\xca\xe1\xd5NV\xc0'
p41
tp42
bsg22
S'Cell[2].axon[43]'
p43
sI8
I13
tp44
a(F2.248834069940655
S'Cell[3].apic[32] syn_ = new ExpSid(0.833333333333)'
p45
I3
(dp46
g3
F0.30000000000000004
sg4
F0.0
sg5
I12
sg6
g7
(g8
(I0
tp47
g10
tp48
Rp49
(I1
(I3
tp50
g17
I00
S'\xd2X\xff\x11\xc5\\B@[\xa6=|\x9c\x82P@\x15\xd4\xbf\xd3\xc0i\x1c\xc0'
p51
tp52
bsg22
S'Cell[3].axon[482]'
p53
sI12
I13
tp54
a(F2.158939956440965
S'Cell[4].apic[3] syn_ = new ExpSid(0.166666666667)'
p55
I4
(dp56
S'seg'
p57
F0.49999999999999994
sS'hostfrom'
p58
F1.0
sS'gid'
p59
I9
sS'coords'
p60
g7
(g8
(I0
tp61
g10
tp62
Rp63
(I1
(I3
tp64
g14
(S'f8'
p65
I0
I1
tp66
Rp67
(I3
S'<'
p68
NNNI-1
I-1
I0
tp69
bI00
S'\xb8.\x0e\x14_^P\xc0\xc0\xedD"\xbbh]@\xb3\xa3\xfew\x95\xc7\x1c\xc0'
p70
tp71
bsS'secnames'
p72
S'Cell[2].axon[60]'
p73
sI9
I17
tp74
a(F1.8608185584112529
S'Cell[1].dend[3] syn_ = new ExpSid(0.5)'
p75
I1
(dp76
g57
F0.5
sg58
F1.0
sg59
I9
sg60
g7
(g8
(I0
tp77
g10
tp78
Rp79
(I1
(I3
tp80
g67
I00
S'2\x8aej\xd5\xe4G@F\xef\x04&9"6\xc0@\xf5\xcf#\x84\x12A\xc0'
p81
tp82
bsg72
S'Cell[2].axon[165]'
p83
sI9
I5
tp84
a(F2.1035202418185217
S'Cell[0].apic[16] syn_ = new ExpSid(0.5)'
p85
I0
(dp86
g57
F0.1
sg58
F1.0
sg59
I9
sg60
g7
(g8
(I0
tp87
g10
tp88
Rp89
(I1
(I3
tp90
g67
I00
S'\xd6\xce\xd2Q%gP@\xac\xef\xaa\xfb\n\\C@\xbc\xf0\xa2x7n%\xc0'
p91
tp92
bsg72
S'Cell[2].axon[180]'
p93
sI9
I1
tp94
a(F0.8921292022923429
S'Cell[0].apic[17] syn_ = new ExpSid(0.9)'
p95
I0
(dp96
g57
F0.5
sg58
F1.0
sg59
I9
sg60
g7
(g8
(I0
tp97
g10
tp98
Rp99
(I1
(I3
tp100
g67
I00
S'\x85\x8d1\x8f\xceOD\xc0\xaa\x8f\xc0\xbd\xdfNV@4\xba\x876\x92\xf3I\xc0'
p101
tp102
bsg72
S'Cell[2].axon[218]'
p103
sI9
I1
tp104
a(F2.4437232846737156
S'Cell[1].apic[12] syn_ = new ExpSid(0.5)'
p105
I1
(dp106
g57
F0.8333333333333333
sg58
F1.0
sg59
I9
sg60
g7
(g8
(I0
tp107
g10
tp108
Rp109
(I1
(I3
tp110
g67
I00
S'\xbeB\xd1\x89\x1d,E@\xc0\x17\xdd\xfa\x83QY\xc0qo\x98$i{&@'
p111
tp112
bsg72
S'Cell[2].axon[337]'
p113
sI9
I5
tp114
a(F1.7812325311000115
S'Cell[3].dend[24] syn_ = new ExpSid(0.5)'
p115
I3
(dp116
g57
F0.30000000000000004
sg58
F1.0
sg59
I9
sg60
g7
(g8
(I0
tp117
g10
tp118
Rp119
(I1
(I3
tp120
g67
I00
S'\xf0d\r:\xd1\n@@>\x1a\x0c\xdc\xd3\xccP\xc0:\xe3\xb3H=}&@'
p121
tp122
bsg72
S'Cell[2].axon[340]'
p123
sI9
I13
tp124
a(F1.3440755862656912
S'Cell[1].apic[172] syn_ = new ExpSid(0.5)'
p125
I1
(dp126
S'seg'
p127
F0.8333333333333333
sS'hostfrom'
p128
F2.0
sS'gid'
p129
I18
sS'coords'
p130
g7
(g8
(I0
tp131
g10
tp132
Rp133
(I1
(I3
tp134
g14
(S'f8'
p135
I0
I1
tp136
Rp137
(I3
S'<'
p138
NNNI-1
I-1
I0
tp139
bI00
S'\xa6h"\x89\x9d.S\xc0\xf3ZS\xf8\xd3\xe0d\xc0o_I\x9e\xfd\x1eG\xc0'
p140
tp141
bsS'secnames'
p142
S'Cell[4].axon[41]'
p143
sI18
I5
tp144
a(F2.113914553548905
S'Cell[3].apic[27] syn_ = new ExpSid(0.5)'
p145
I3
(dp146
g127
F0.5
sg128
F2.0
sg129
I18
sg130
g7
(g8
(I0
tp147
g10
tp148
Rp149
(I1
(I3
tp150
g137
I00
S'\xd5\xa1e\xce\xfd?I@d\xbc\x14\x8c\x16\xcf!@\x00\x00\x00\x80\x14\xae\x01@'
p151
tp152
bsg142
S'Cell[4].axon[70]'
p153
sI18
I13
tp154
a(F1.3581591856645507
S'Cell[0].dend[7] syn_ = new ExpSid(0.5)'
p155
I0
(dp156
g127
F0.5
sg128
F2.0
sg129
I18
sg130
g7
(g8
(I0
tp157
g10
tp158
Rp159
(I1
(I3
tp160
g137
I00
S'\xa6Hk\xc8\xef\x8d@@\x085vx\x86`\xf4\xbfH\xaf"=\xf7e\x05@'
p161
tp162
bsg142
S'Cell[4].axon[105]'
p163
sI18
I1
tp164
a(F0.3077359830836015
S'Cell[2].dend[23] syn_ = new FastInhib(0.928571428571)'
p165
I2
(dp166
S'seg'
p167
F0.5
sS'hostfrom'
p168
F3.0
sS'gid'
p169
I15
sS'coords'
p170
g7
(g8
(I0
tp171
g10
tp172
Rp173
(I1
(I3
tp174
g14
(S'f8'
p175
I0
I1
tp176
Rp177
(I3
S'<'
p178
NNNI-1
I-1
I0
tp179
bI00
S'\xda,\x1f\xf2k\x00$@8\xa3_\x9a\xe46h\xc0\xca^\xf9W\xb8e1@'
p180
tp181
bsS'secnames'
p182
S'Cell[3].axon[131]'
p183
sI15
I9
tp184
a(F2.3779869113085415
S'Cell[1].apic[1] syn_ = new ExpSid(0.5)'
p185
I1
(dp186
g167
F0.08823529411764705
sg168
F3.0
sg169
I15
sg170
g7
(g8
(I0
tp187
g10
tp188
Rp189
(I1
(I3
tp190
g177
I00
S'\x18(X\x0f\xf43=\xc0R`\xf5C\xfd\xb4R\xc0\x00\x00\x00\xa0Ga-\xc0'
p191
tp192
bsg182
S'Cell[3].axon[174]'
p193
sI15
I5
tp194
a(F1.551636321775298
S'Cell[4].dend[16] syn_ = new ExpSid(0.3)'
p195
I4
(dp196
g167
F0.5
sg168
F3.0
sg169
I3
sg170
g7
(g8
(I0
tp197
g10
tp198
Rp199
(I1
(I3
tp200
g177
I00
S'\xc3\xd00\x07\x8f^T\xc0\x08\xaf4\xadM\x12<@\x84\xd0\xc2\x9f\xa1\xf18\xc0'
p201
tp202
bsg182
S'Cell[0].axon[199]'
p203
sI3
I17
tp204
a(F2.25211224110403
S'Cell[1].apic[105] syn_ = new ExpSid(0.0555555555556)'
p205
I1
(dp206
g167
F0.8333333333333333
sg168
F3.0
sg169
I3
sg170
g7
(g8
(I0
tp207
g10
tp208
Rp209
(I1
(I3
tp210
g177
I00
S'-t\x81\xc6\x1cJE\xc0\xa7Dj\xeb\n\xe7}\xc0\x00\x00\x00@33\x19\xc0'
p211
tp212
bsg182
S'Cell[0].axon[291]'
p213
sI3
I5
tp214
a.