(lp0
(F1.0018559051420899
S'Cell[7].apic[0] syn_ = new AmpaNmda(0.5)'
p1
I7
(dp2
S'seg'
p3
F0.8333333333333335
sS'hostfrom'
p4
F1.0
sS'gid'
p5
I32
sS'coords'
p6
cnumpy.core.multiarray
_reconstruct
p7
(cnumpy
ndarray
p8
(I0
tp9
S'b'
p10
tp11
Rp12
(I1
(I3
tp13
cnumpy
dtype
p14
(S'f8'
p15
I0
I1
tp16
Rp17
(I3
S'<'
p18
NNNI-1
I-1
I0
tp19
bI00
S"T\xf3'Y\xba%J@\xee\xeb\xfa@<\xbeS@G0\xac\x0b\xfa\xd3\x11\xc0"
p20
tp21
bsS'secnames'
p22
S'Cell[6].axon[38]'
p23
sI32
I38
tp24
a(F1.3353585358424016
S'Cell[1].dend[10] syn_ = new AmpaNmda(0.9)'
p25
I1
(dp26
g3
F0.26
sg4
F1.0
sg5
I12
sg6
g7
(g8
(I0
tp27
g10
tp28
Rp29
(I1
(I3
tp30
g17
I00
S'\xd0\xfa+\x83\xdb\x81^@\xbai!]j\xbda\xc0\xed\xc8\x9f\x82l\xdf2@'
p31
tp32
bsg22
S'Cell[2].axon[43]'
p33
sI12
I8
tp34
a(F2.3979908122929676
S'Cell[8].dend[10] syn_ = new ExpSid(0.166666666667)'
p35
I8
(dp36
g3
F0.8333333333333333
sg4
F1.0
sg5
I47
sg6
g7
(g8
(I0
tp37
g10
tp38
Rp39
(I1
(I3
tp40
g17
I00
S'@\x0459\xbf-N\xc0#\x80\xbf>_\x1d\x00\xc0\x82\xd1\xb9\xd4\xca\xee\xfb?'
p41
tp42
bsg22
S'Cell[9].axon[31]'
p43
sI47
I43
tp44
a(F2.4318813008280697
S'Cell[2].dend[13] syn_ = new ExpSid(0.0714285714286)'
p45
I2
(dp46
g3
F0.7
sg4
F1.0
sg5
I47
sg6
g7
(g8
(I0
tp47
g10
tp48
Rp49
(I1
(I3
tp50
g17
I00
S'\x15\xcb\xa6q\xdf;<@\x9f\x05\xf4\x8a\x8e\xfeD\xc0\xff\xff\xff\xbf\xcc\xcc-\xc0'
p51
tp52
bsg22
S'Cell[9].axon[41]'
p53
sI47
I13
tp54
a(F2.297976659705092
S'Cell[9].dend[13] syn_ = new ExpSid(0.5)'
p55
I9
(dp56
g3
F0.5
sg4
F1.0
sg5
I17
sg6
g7
(g8
(I0
tp57
g10
tp58
Rp59
(I1
(I3
tp60
g17
I00
S'Y\xd2\xff\xbe\x83\xbbR\xc0\x98,P\x1c\x83u5\xc02O\xe4\x91\x0c\xf0(@'
p61
tp62
bsg22
S'Cell[3].axon[3]'
p63
sI17
I48
tp64
a(F1.563136430134202
S'Cell[5].apic[36] syn_ = new AmpaNmda(0.5)'
p65
I5
(dp66
g3
F0.8999999999999999
sg4
F1.0
sg5
I22
sg6
g7
(g8
(I0
tp67
g10
tp68
Rp69
(I1
(I3
tp70
g17
I00
S'\xf7\x86h\xf7\x1f\x001@\x9a\x9e\x99l\xb6&^@, \xa3\x0b\x99o\x0b\xc0'
p71
tp72
bsg22
S'Cell[4].axon[0]'
p73
sI22
I28
tp74
a(F1.123428433139982
S'Cell[1].dend[7] syn_ = new AmpaNmda(0.5)'
p75
I1
(dp76
S'seg'
p77
F0.5
sS'hostfrom'
p78
F2.0
sS'gid'
p79
I38
sS'coords'
p80
g7
(g8
(I0
tp81
g10
tp82
Rp83
(I1
(I3
tp84
g14
(S'f8'
p85
I0
I1
tp86
Rp87
(I3
S'<'
p88
NNNI-1
I-1
I0
tp89
bI00
S"\x1a^-\xb4\x1b\xe7I@}\xe9,\x96}\xc3B\xc0\x08g\xa0\xbd\xf9.'@"
p90
tp91
bsS'secnames'
p92
S'Cell[7].axon[1]'
p93
sI38
I8
tp94
a(F2.0888909145421963
S'Cell[2].apic[23] syn_ = new AmpaNmda(0.1)'
p95
I2
(dp96
g77
F0.62
sg78
F2.0
sg79
I8
sg80
g7
(g8
(I0
tp97
g10
tp98
Rp99
(I1
(I3
tp100
g87
I00
S'&\xae/]|PQ@\xa5\xd6\x0c\xc7\xdfCj@tj\xca\xe1\xd5NV\xc0'
p101
tp102
bsg92
S'Cell[1].axon[43]'
p103
sI8
I13
tp104
a(F0.764583667057416
S'Cell[8].apic[20] syn_ = new AmpaNmda(0.833333333333)'
p105
I8
(dp106
g77
F0.30000000000000004
sg78
F2.0
sg79
I8
sg80
g7
(g8
(I0
tp107
g10
tp108
Rp109
(I1
(I3
tp110
g87
I00
S'J\xa6\tV\x13wV\xc0\xa6\xa3]\xa2\xc2\xc9`@\xe8D\xcd-]5B\xc0'
p111
tp112
bsg92
S'Cell[1].axon[48]'
p113
sI8
I43
tp114
a(F1.422887206471905
S'Cell[4].apic[25] syn_ = new ExpSid(0.833333333333)'
p115
I4
(dp116
g77
F0.16666666666666666
sg78
F2.0
sg79
I13
sg80
g7
(g8
(I0
tp117
g10
tp118
Rp119
(I1
(I3
tp120
g87
I00
S"\xba`\x12\xe03)I@N\x99&\xeeH\xf6X\xc0tc\xf1\x07SV'\xc0"
p121
tp122
bsg92
S'Cell[2].axon[2]'
p123
sI13
I23
tp124
a(F2.350799300891574
S'Cell[1].dend[65] syn_ = new AmpaNmda(0.5)'
p125
I1
(dp126
S'seg'
p127
F0.5
sS'hostfrom'
p128
F3.0
sS'gid'
p129
I44
sS'coords'
p130
g7
(g8
(I0
tp131
g10
tp132
Rp133
(I1
(I3
tp134
g14
(S'f8'
p135
I0
I1
tp136
Rp137
(I3
S'<'
p138
NNNI-1
I-1
I0
tp139
bI00
S'Z\xce\xfd\xb2\xd6F4\xc0\x1a{\x1c\x86\x91pN\xc0\xdb\x9c{\xdb3\xe3\xf1\xbf'
p140
tp141
bsS'secnames'
p142
S'Cell[8].axon[1]'
p143
sI44
I8
tp144
a(F1.5420108751886137
S'Cell[4].apic[28] syn_ = new AmpaNmda(0.833333333333)'
p145
I4
(dp146
g127
F0.8333333333333333
sg128
F3.0
sg129
I14
sg130
g7
(g8
(I0
tp147
g10
tp148
Rp149
(I1
(I3
tp150
g137
I00
S'\xbe\xd9?\xe9\xd5\x86D@&F\x88\x88\x1f)a\xc0\xda:\x9e\x84\xdc\x9c/@'
p151
tp152
bsg142
S'Cell[2].axon[5]'
p153
sI14
I23
tp154
a(F2.0063278101220554
S'Cell[3].dend[4] syn_ = new ExpSid(0.5)'
p155
I3
(dp156
S'seg'
p157
F0.5
sS'hostfrom'
p158
F4.0
sS'gid'
p159
I35
sS'coords'
p160
g7
(g8
(I0
tp161
g10
tp162
Rp163
(I1
(I3
tp164
g14
(S'f8'
p165
I0
I1
tp166
Rp167
(I3
S'<'
p168
NNNI-1
I-1
I0
tp169
bI00
S'EG\xad0\xcd\x01\x00@\x82\xbb\xc2\xd2$HC\xc0.P=\x11\xca\xa23@'
p170
tp171
bsS'secnames'
p172
S'Cell[6].axon[2]'
p173
sI35
I18
tp174
a(F2.0532381768482373
S'Cell[1].dend[42] syn_ = new ExpSid(0.5)'
p175
I1
(dp176
g157
F0.5
sg158
F4.0
sg159
I35
sg160
g7
(g8
(I0
tp177
g10
tp178
Rp179
(I1
(I3
tp180
g167
I00
S'u\xb5\x8c\x829\xf00@\xf7j\xf44\x99XQ\xc0\xa8\xdd\xee\x1b\xde~\xd7\xbf'
p181
tp182
bsg172
S'Cell[6].axon[5]'
p183
sI35
I8
tp184
a(F2.456318649240502
S'Cell[8].apic[28] syn_ = new ExpSid(0.5)'
p185
I8
(dp186
g157
F0.5
sg158
F4.0
sg159
I5
sg160
g7
(g8
(I0
tp187
g10
tp188
Rp189
(I1
(I3
tp190
g167
I00
S'\xdf\xc2|a\xf0$=\xc0S\x0b\xf8\xb8\x12\x8eQ@\xa8\xbe\xd4}\x01\xf8\x14\xc0'
p191
tp192
bsg172
S'Cell[0].axon[12]'
p193
sI5
I43
tp194
a(F2.480114308551243
S'Cell[3].dend[22] syn_ = new ExpSid(0.5)'
p195
I3
(dp196
g157
F0.3
sg158
F4.0
sg159
I5
sg160
g7
(g8
(I0
tp197
g10
tp198
Rp199
(I1
(I3
tp200
g167
I00
S'\x97\xee[p\x8f#E\xc0\x13\xcdo\x98\xcd\xf4%\xc0\x83V4\xf24\x9aQ@'
p201
tp202
bsg172
S'Cell[0].axon[15]'
p203
sI5
I18
tp204
a(F2.344152688888211
S'Cell[7].dend[9] syn_ = new ExpSid(0.5)'
p205
I7
(dp206
g157
F0.5
sg158
F4.0
sg159
I5
sg160
g7
(g8
(I0
tp207
g10
tp208
Rp209
(I1
(I3
tp210
g167
I00
S'\xc8\xb1\xbe\xa4Vc4@\xc2\xd6\x8c\x94AUR@\xf5\xa97\xd8F?7\xc0'
p211
tp212
bsg172
S'Cell[0].axon[69]'
p213
sI5
I38
tp214
a(F0.404747900612761
S'Cell[2].dend[21] syn_ = new AmpaNmda(0.5)'
p215
I2
(dp216
g157
F0.16666666666666666
sg158
F4.0
sg159
I30
sg160
g7
(g8
(I0
tp217
g10
tp218
Rp219
(I1
(I3
tp220
g167
I00
S'C#K\xf9 \x0e%\xc0\xcc\x19\x92\x16\x8f"D\xc0\xb0 _\t&\x1f/\xc0'
p221
tp222
bsg172
S'Cell[5].axon[0]'
p223
sI30
I13
tp224
a.