(lp0
(F2.211230624776667
S'Cell[1].apic[247] syn_ = new AmpaNmda(0.145161290323)'
p1
I1
(dp2
S'seg'
p3
F0.5
sS'hostfrom'
p4
F0.0
sS'gid'
p5
I0
sS'coords'
p6
cnumpy.core.multiarray
_reconstruct
p7
(cnumpy
ndarray
p8
(I0
tp9
S'b'
p10
tp11
Rp12
(I1
(I3
tp13
cnumpy
dtype
p14
(S'f8'
p15
I0
I1
tp16
Rp17
(I3
S'<'
p18
NNNI-1
I-1
I0
tp19
bI00
S'\x06\xa5\xad\x85v]c\xc0f\tZ\xd9\xd5.@\xc0f\tZyF\x8c!\xc0'
p20
tp21
bsS'secnames'
p22
S'Cell[0].axon[61]'
p23
sI0
I7
tp24
a(F1.9725259738585412
S'Cell[1].apic[266] syn_ = new AmpaNmda(0.928571428571)'
p25
I1
(dp26
g3
F0.5
sg4
F0.0
sg5
I0
sg6
g7
(g8
(I0
tp27
g10
tp28
Rp29
(I1
(I3
tp30
g17
I00
S'\x01\xe8\x85p\x81Zb\xc0L\x80\xf6\xb2\xaaCB\xc0\x8b\xfd9i\xd19\x1d\xc0'
p31
tp32
bsg22
S'Cell[0].axon[64]'
p33
sI0
I7
tp34
a(F2.3556050068841574
S'Cell[8].apic[17] syn_ = new AmpaNmda(0.166666666667)'
p35
I8
(dp36
g3
F0.5
sg4
F0.0
sg5
I0
sg6
g7
(g8
(I0
tp37
g10
tp38
Rp39
(I1
(I3
tp40
g17
I00
S"z7m8\xff\xf7P@0\x0c\x9c\x80:\xc4F@z7m\xd8Fy'@"
p41
tp42
bsg22
S'Cell[0].axon[203]'
p43
sI0
I35
tp44
a(F2.4317515846455153
S'Cell[1].apic[171] syn_ = new AmpaNmda(0.0555555555556)'
p45
I1
(dp46
g3
F0.16666666666666666
sg4
F0.0
sg5
I8
sg6
g7
(g8
(I0
tp47
g10
tp48
Rp49
(I1
(I3
tp50
g17
I00
S'\x94i\xa5\x91\x04\xa0L@h\xcfR\xe8\xd0\x9ck\xc0X\xef)Pq\x9e\x12@'
p51
tp52
bsg22
S'Cell[2].axon[6]'
p53
sI8
I7
tp54
a(F1.9526979086144733
S'Cell[9].dend[38] syn_ = new FastInhib(0.833333333333)'
p55
I9
(dp56
g3
F0.5
sg4
F0.0
sg5
I12
sg6
g7
(g8
(I0
tp57
g10
tp58
Rp59
(I1
(I3
tp60
g17
I00
S'\xa8\xf9\xb3\xd5\xff\xe1d@@\xe1p\xc33\x85O@\x00\x00\x00\xe0\xa3\xd0P\xc0'
p61
tp62
bsg22
S'Cell[3].axon[111]'
p63
sI12
I39
tp64
a(F2.445715871221025
S'Cell[9].dend[45] syn_ = new FastInhib(0.166666666667)'
p65
I9
(dp66
g3
F0.5
sg4
F0.0
sg5
I12
sg6
g7
(g8
(I0
tp67
g10
tp68
Rp69
(I1
(I3
tp70
g17
I00
S'\xe03\xc7#W)V@\x10\xa0n\xff|\x18;@\x9a\xdf\xce<\x81\nB\xc0'
p71
tp72
bsg22
S'Cell[3].axon[248]'
p73
sI12
I39
tp74
a(F1.2664589332509082
S'Cell[0].dend[41] syn_ = new FastInhib(0.9)'
p75
I0
(dp76
g3
F0.5
sg4
F0.0
sg5
I12
sg6
g7
(g8
(I0
tp77
g10
tp78
Rp79
(I1
(I3
tp80
g17
I00
S'\xa8*Lc\x05\xdeH@u\xcai#N\xb6S@\x17\xdf?Y\xfa\xe9-\xc0'
p81
tp82
bsg22
S'Cell[3].axon[329]'
p83
sI12
I3
tp84
a(F2.1112410864805073
S'Cell[5].dend[0] syn_ = new AmpaNmda(0.5)'
p85
I5
(dp86
g3
F0.8333333333333333
sg4
F0.0
sg5
I12
sg6
g7
(g8
(I0
tp87
g10
tp88
Rp89
(I1
(I3
tp90
g17
I00
S'\x03\xaa,x\xfa)P@\xb0\xb8K\x00\xea\xe8Z@\x000\xa8\xbe\xee\xb1$\xc0'
p91
tp92
bsg22
S'Cell[3].axon[495]'
p93
sI12
I23
tp94
a(F1.6801093940165461
S'Cell[0].dend[17] syn_ = new FastInhib(0.5)'
p95
I0
(dp96
g3
F0.5
sg4
F0.0
sg5
I12
sg6
g7
(g8
(I0
tp97
g10
tp98
Rp99
(I1
(I3
tp100
g17
I00
S"kK']\xfa\r3\xc0\x9bV\x99&\xdf\x96O@\n&\\\xcd.\xad:\xc0"
p101
tp102
bsg22
S'Cell[3].axon[529]'
p103
sI12
I3
tp104
a(F2.464017467789889
S'Cell[4].dend[8] syn_ = new AmpaNmda(0.5)'
p105
I4
(dp106
g3
F0.30000000000000004
sg4
F0.0
sg5
I24
sg6
g7
(g8
(I0
tp107
g10
tp108
Rp109
(I1
(I3
tp110
g17
I00
S'\xc1\xcbO\xd2\x0baL\xc0h2\xf1G~\xbcG\xc0\xaf\x81I^\x80\x0e4\xc0'
p111
tp112
bsg22
S'Cell[6].axon[59]'
p113
sI24
I19
tp114
a(F1.6000298753340507
S'Cell[7].dend[17] syn_ = new AmpaNmda(0.5)'
p115
I7
g106
I24
I31
tp116
a(F2.200030808260216
S'Cell[8].dend[11] syn_ = new AmpaNmda(0.5)'
p117
I8
(dp118
g3
F0.07142857142857142
sg4
F0.0
sg5
I24
sg6
g7
(g8
(I0
tp119
g10
tp120
Rp121
(I1
(I3
tp122
g17
I00
S'3\x8eOJ?y \xc0L\x9a\x95$\xebc:@\x00\x00\x00\x00)\x1c6\xc0'
p123
tp124
bsg22
S'Cell[6].axon[144]'
p125
sI24
I35
tp126
a(F2.012486612125723
S'Cell[7].apic[26] syn_ = new AmpaNmda(0.366666666667)'
p127
I7
(dp128
g3
F0.5
sg4
F0.0
sg5
I24
sg6
g7
(g8
(I0
tp129
g10
tp130
Rp131
(I1
(I3
tp132
g17
I00
S'R3\xc1\x0cv\x9a9\xc0\x88\x84OM*dh@r\xfa\xb1-\x94\xfc:\xc0'
p133
tp134
bsg22
S'Cell[6].axon[183]'
p135
sI24
I31
tp136
a(F2.4377539124263037
S'Cell[3].dend[51] syn_ = new FastInhib(0.5)'
p137
I3
(dp138
g3
F0.16666666666666666
sg4
F0.0
sg5
I24
sg6
g7
(g8
(I0
tp139
g10
tp140
Rp141
(I1
(I3
tp142
g17
I00
S'\xc4F:l\xc5S\x1c@\x03[S\xbb4\x00A\xc0\x00\x00\x00\x80\xebQ\xf8?'
p143
tp144
bsg22
S'Cell[6].axon[262]'
p145
sI24
I15
tp146
a(F2.1347586531689924
S'Cell[5].dend[33] syn_ = new AmpaNmda(0.166666666667)'
p147
I5
(dp148
g3
F0.16666666666666666
sg4
F0.0
sg5
I24
sg6
g7
(g8
(I0
tp149
g10
tp150
Rp151
(I1
(I3
tp152
g17
I00
S'\xf0\xda\xad\x9e\xbc\xfd\xf6\xbf\x0e\xc10:\xa5\x07`@z?\xac\x13\x8f\x02\x16\xc0'
p153
tp154
bsg22
S'Cell[6].axon[272]'
p155
sI24
I23
tp156
a(F2.3127377768532162
S'Cell[8].apic[18] syn_ = new AmpaNmda(0.5)'
p157
I8
(dp158
g3
F0.1
sg4
F0.0
sg5
I24
sg6
g7
(g8
(I0
tp159
g10
tp160
Rp161
(I1
(I3
tp162
g17
I00
S'.\t$-n\xf0V@\xefK\xa5?\xff\xe0H@\xefBo\xa4\x97\xc0/@'
p163
tp164
bsg22
S'Cell[6].axon[347]'
p165
sI24
I35
tp166
a(F2.0972928555248513
S'Cell[9].dend[47] syn_ = new FastInhib(0.5)'
p167
I9
(dp168
g3
F0.7
sg4
F0.0
sg5
I24
sg6
g7
(g8
(I0
tp169
g10
tp170
Rp171
(I1
(I3
tp172
g17
I00
S'EUU20qT@m\xb1\xa980A\x12@!\xa6\xf3~\xb9\xa3%\xc0'
p173
tp174
bsg22
S'Cell[6].axon[348]'
p175
sI24
I39
tp176
a(F2.0968239139274627
S'Cell[6].dend[3] syn_ = new FastInhib(0.833333333333)'
p177
I6
(dp178
g3
F0.5
sg4
F0.0
sg5
I24
sg6
g7
(g8
(I0
tp179
g10
tp180
Rp181
(I1
(I3
tp182
g17
I00
S'\xb3\x7fP{\xf0\xf2Q@\x8a\x9b\xe3\xad\xc6\xc5\n@\xd2\x88\xd3\xbb(\xdd\r\xc0'
p183
tp184
bsg22
S'Cell[6].axon[350]'
p185
sI24
I27
tp186
a(F1.8485823032882005
S'Cell[3].dend[66] syn_ = new FastInhib(0.166666666667)'
p187
I3
(dp188
g3
F0.5
sg4
F0.0
sg5
I24
sg6
g7
(g8
(I0
tp189
g10
tp190
Rp191
(I1
(I3
tp192
g17
I00
S'\x05\xe8\xb7\x08`\xa21@`\xd3\xc5\x98qeZ@\x00\x00\x00`\x8f\xc2\x17\xc0'
p193
tp194
bsg22
S'Cell[6].axon[406]'
p195
sI24
I15
tp196
a(F1.9070802372690303
S'Cell[0].dend[10] syn_ = new FastInhib(0.5)'
p197
I0
(dp198
g3
F0.16666666666666666
sg4
F0.0
sg5
I24
sg6
g7
(g8
(I0
tp199
g10
tp200
Rp201
(I1
(I3
tp202
g17
I00
S'J\x1c\xb26]\xc66\xc0E\x16\xc2\xaak\xf9\xed\xbfH\xc4\xc4o\x1a\xa1\t\xc0'
p203
tp204
bsg22
S'Cell[6].axon[445]'
p205
sI24
I3
tp206
a(F2.343760048998472
S'Cell[2].apic[26] syn_ = new AmpaNmda(0.5)'
p207
I2
(dp208
g3
F0.07142857142857142
sg4
F0.0
sg5
I36
sg6
g7
(g8
(I0
tp209
g10
tp210
Rp211
(I1
(I3
tp212
g17
I00
S'\xd6i\xb1O\xcc?T\xc0\xf3ukF2{M@\x00\x00\x00\x80=\x8a/@'
p213
tp214
bsg22
S'Cell[9].axon[75]'
p215
sI36
I11
tp216
a(F2.4100220237205447
S'Cell[5].dend[36] syn_ = new AmpaNmda(0.5)'
p217
I5
(dp218
g3
F0.16666666666666666
sg4
F0.0
sg5
I36
sg6
g7
(g8
(I0
tp219
g10
tp220
Rp221
(I1
(I3
tp222
g17
I00
S'\xb4[\xef\x12\x1c\xc3*@\xf5\xc07\x8f\x01\xf8^@\xe2\xcdn\x117\xf96@'
p223
tp224
bsg22
S'Cell[9].axon[172]'
p225
sI36
I23
tp226
a(F1.1951601820741047
S'Cell[5].dend[26] syn_ = new AmpaNmda(0.833333333333)'
p227
I5
(dp228
g3
F0.5
sg4
F0.0
sg5
I36
sg6
g7
(g8
(I0
tp229
g10
tp230
Rp231
(I1
(I3
tp232
g17
I00
S'\x95\xe6\xa3\xf2\x068A\xc0\x81K\xe9\x0c\x82\x1a\\@\x83\x11\xb9\xa8,\xcb\t\xc0'
p233
tp234
bsg22
S'Cell[9].axon[247]'
p235
sI36
I23
tp236
a(F2.29802271903784
S'Cell[3].dend[40] syn_ = new FastInhib(0.5)'
p237
I3
(dp238
S'seg'
p239
F0.8333333333333333
sS'hostfrom'
p240
F1.0
sS'gid'
p241
I1
sS'coords'
p242
g7
(g8
(I0
tp243
g10
tp244
Rp245
(I1
(I3
tp246
g14
(S'f8'
p247
I0
I1
tp248
Rp249
(I3
S'<'
p250
NNNI-1
I-1
I0
tp251
bI00
S"\xac\xbf'\x8b&sU@\xfaA\x98\xda\x12\x01L\xc0\x00\x00\x00@33/\xc0"
p252
tp253
bsS'secnames'
p254
S'Cell[0].axon[54]'
p255
sI1
I15
tp256
a(F1.7543964701167187
S'Cell[8].apic[24] syn_ = new ExpSid(0.5)'
p257
I8
(dp258
g239
F0.40909090909090906
sg240
F1.0
sg241
I5
sg242
g7
(g8
(I0
tp259
g10
tp260
Rp261
(I1
(I3
tp262
g249
I00
S'\xe4x\xad\x11\x8fi<@Z\x11L{U\xe3E@\x87V\x11\x91h\xf8D@'
p263
tp264
bsg254
S'Cell[1].axon[16]'
p265
sI5
I35
tp266
a(F2.249618258539307
S'Cell[1].apic[70] syn_ = new ExpSid(0.166666666667)'
p267
I1
(dp268
g239
F0.8333333333333333
sg240
F1.0
sg241
I33
sg242
g7
(g8
(I0
tp269
g10
tp270
Rp271
(I1
(I3
tp272
g249
I00
S'p\xdb\x006uLN\xc0YE\x93\xa01\xa1`@\x00\x00\x00@\xe1z\x17\xc0'
p273
tp274
bsg254
S'Cell[8].axon[37]'
p275
sI33
I7
tp276
a(F2.4193241522148945
S'Cell[9].dend[46] syn_ = new FastInhib(0.3)'
p277
I9
(dp278
g239
F0.30000000000000004
sg240
F1.0
sg241
I33
sg242
g7
(g8
(I0
tp279
g10
tp280
Rp281
(I1
(I3
tp282
g249
I00
S'\xe3b\xf6\x88<]R@0_\xf7\xa9\xc9\x05C@1D^\xeci\xf9I\xc0'
p283
tp284
bsg254
S'Cell[8].axon[85]'
p285
sI33
I39
tp286
a(F2.292588043256402
S'Cell[4].dend[23] syn_ = new ExpSid(0.5)'
p287
I4
(dp288
g239
F0.5
sg240
F1.0
sg241
I33
sg242
g7
(g8
(I0
tp289
g10
tp290
Rp291
(I1
(I3
tp292
g249
I00
S'_\xab%\xd9\x87\xb8;@!:\xf2M\x1e\xe1+@\xee\x94\xeeh\x8f@$\xc0'
p293
tp294
bsg254
S'Cell[8].axon[96]'
p295
sI33
I19
tp296
a(F1.8003301886958505
S'Cell[2].dend[40] syn_ = new ExpSid(0.5)'
p297
I2
(dp298
g239
F0.5
sg240
F1.0
sg241
I33
sg242
g7
(g8
(I0
tp299
g10
tp300
Rp301
(I1
(I3
tp302
g249
I00
S'\x9f\x06\x0b\x87\x1c(\x16@\x02\x80>\x06\xf7\\I\xc0)G\xfdy\x81+6\xc0'
p303
tp304
bsg254
S'Cell[8].axon[100]'
p305
sI33
I11
tp306
a(F1.9534074703313218
S'Cell[0].dend[13] syn_ = new FastInhib(0.5)'
p307
I0
(dp308
g239
F0.8333333333333333
sg240
F1.0
sg241
I33
sg242
g7
(g8
(I0
tp309
g10
tp310
Rp311
(I1
(I3
tp312
g249
I00
S'\x0b\xa8\xe0f\xc3v"@\x9e\xb5\xc1\xe9P\x7fA@v\x81\xdasY\xdb8\xc0'
p313
tp314
bsg254
S'Cell[8].axon[132]'
p315
sI33
I3
tp316
a(F2.3365936325794414
S'Cell[1].apic[266] syn_ = new ExpSid(0.357142857143)'
p317
I1
(dp318
g239
F0.7857142857142856
sg240
F1.0
sg241
I33
sg242
g7
(g8
(I0
tp319
g10
tp320
Rp321
(I1
(I3
tp322
g249
I00
S'\xffC\xf4Z\r\xbfT\xc0\xee\x99\x8d\xfcq]T\xc0\xd8\x0f\x11O0\x95+\xc0'
p323
tp324
bsg254
S'Cell[8].axon[200]'
p325
sI33
I7
tp326
a(F1.2558818876744944
S'Cell[0].dend[25] syn_ = new FastInhib(0.5)'
p327
I0
(dp328
g239
F0.49999999999999994
sg240
F1.0
sg241
I33
sg242
g7
(g8
(I0
tp329
g10
tp330
Rp331
(I1
(I3
tp332
g249
I00
S'\x84\xb2\xc52\xe3-%\xc02t\xc4\xd8M\x8d\x1a\xc0\x16\xf0\x7f\xab\xaa\xb5G\xc0'
p333
tp334
bsg254
S'Cell[8].axon[201]'
p335
sI33
I3
tp336
a(F2.4450016092897573
S'Cell[4].dend[23] syn_ = new ExpSid(0.5)'
p337
I4
(dp338
g239
F0.7
sg240
F1.0
sg241
I33
sg242
g7
(g8
(I0
tp339
g10
tp340
Rp341
(I1
(I3
tp342
g249
I00
S"\x00\x00\x00@\xe1z9@'\nK_\xec\xe8*@\xb4\xbdd\xdb\xc8\xfe#\xc0"
p343
tp344
bsg254
S'Cell[8].axon[206]'
p345
sI33
I19
tp346
a(F1.5117909706156023
S'Cell[7].dend[15] syn_ = new ExpSid(0.5)'
p347
I7
(dp348
g239
F0.9285714285714284
sg240
F1.0
sg241
I33
sg242
g7
(g8
(I0
tp349
g10
tp350
Rp351
(I1
(I3
tp352
g249
I00
S'\x0c{\xde\x85\xd9\xb2B\xc0,\xe5\xbe\xb4\xfe\x89E\xc0\xfd:\xa0\x07|D\x0c@'
p353
tp354
bsg254
S'Cell[8].axon[207]'
p355
sI33
I31
tp356
a(F1.6545795035013955
S'Cell[2].dend[22] syn_ = new ExpSid(0.5)'
p357
I2
(dp358
g239
F0.5
sg240
F1.0
sg241
I9
sg242
g7
(g8
(I0
tp359
g10
tp360
Rp361
(I1
(I3
tp362
g249
I00
S'N3\x87\x82\x9d\x1aD\xc0\xb0p\xb5\xaeD0R\xc0\x00\x00\x00\x80\xeb\xd1$\xc0'
p363
tp364
bsg254
S'Cell[2].axon[80]'
p365
sI9
I11
tp366
a(F2.1046543675114036
S'Cell[2].apic[34] syn_ = new ExpSid(0.5)'
p367
I2
(dp368
g239
F0.1
sg240
F1.0
sg241
I9
sg242
g7
(g8
(I0
tp369
g10
tp370
Rp371
(I1
(I3
tp372
g249
I00
S'\x05_2\x89v\x91V\xc0(\xed\xf8\x95\xf6\xd29@\x01\x94\x17\xac\x11$4\xc0'
p373
tp374
bsg254
S'Cell[2].axon[93]'
p375
sI9
I11
tp376
a(F1.8423948897348013
S'Cell[0].dend[15] syn_ = new FastInhib(0.5)'
p377
I0
(dp378
g239
F0.16666666666666666
sg240
F1.0
sg241
I9
sg242
g7
(g8
(I0
tp379
g10
tp380
Rp381
(I1
(I3
tp382
g249
I00
S'\x0c\xc2\xda\x1c\x16\xaf&\xc0\xb8\xe2\xef}\x14\x83?@\x00\x00\x00\xa0G\xc1@\xc0'
p383
tp384
bsg254
S'Cell[2].axon[103]'
p385
sI9
I3
tp386
a(F2.007947940784796
S'Cell[2].apic[20] syn_ = new ExpSid(0.5)'
p387
I2
(dp388
g239
F0.16666666666666666
sg240
F1.0
sg241
I9
sg242
g7
(g8
(I0
tp389
g10
tp390
Rp391
(I1
(I3
tp392
g249
I00
S'\xdb\xebe\xcf&\x15C@\x7f8^V\x83\x8d>@}\xcc\xd1\xa8\x12#M\xc0'
p393
tp394
bsg254
S'Cell[2].axon[109]'
p395
sI9
I11
tp396
a(F1.695151572506007
S'Cell[2].apic[33] syn_ = new ExpSid(0.166666666667)'
p397
I2
(dp398
g239
F0.5
sg240
F1.0
sg241
I9
sg242
g7
(g8
(I0
tp399
g10
tp400
Rp401
(I1
(I3
tp402
g249
I00
S'\x15\xfb\x02\xbe\x8e\x01E\xc0\xfa\x1d\x86\x00"\x1bO@\x05R\xc0q\xf8\x1a8\xc0'
p403
tp404
bsg254
S'Cell[2].axon[133]'
p405
sI9
I11
tp406
a(F2.3389803578472224
S'Cell[2].apic[30] syn_ = new ExpSid(0.5)'
p407
I2
(dp408
g239
F0.07142857142857142
sg240
F1.0
sg241
I9
sg242
g7
(g8
(I0
tp409
g10
tp410
Rp411
(I1
(I3
tp412
g249
I00
S'\xea\x91V\x047gG\xc0U\xe5\xc1\x8e\xf7\xd1R@\xcc\xf7\x8a8\xa1\xb80\xc0'
p413
tp414
bsg254
S'Cell[2].axon[147]'
p415
sI9
I11
tp416
a(F1.4987875944018838
S'Cell[5].apic[13] syn_ = new ExpSid(0.166666666667)'
p417
I5
(dp418
g239
F0.5
sg240
F1.0
sg241
I9
sg242
g7
(g8
(I0
tp419
g10
tp420
Rp421
(I1
(I3
tp422
g249
I00
S'\xfb\x99\x17\x1dx\x84N@\xbb\x01\xec\xf4\x8e\x94\x16\xc0\x19T\x1c\x18uK+\xc0'
p423
tp424
bsg254
S'Cell[2].axon[151]'
p425
sI9
I23
tp426
a(F2.324422208745311
S'Cell[0].apic[2] syn_ = new FastInhib(0.166666666667)'
p427
I0
(dp428
g239
F0.8333333333333333
sg240
F1.0
sg241
I9
sg242
g7
(g8
(I0
tp429
g10
tp430
Rp431
(I1
(I3
tp432
g249
I00
S'\xcaP\xc5\xb2Cj(\xc0\x10\xd6$\xac\x86\xcaH\xc0\xeb{:\xb3\xd6\xae\x0c\xc0'
p433
tp434
bsg254
S'Cell[2].axon[157]'
p435
sI9
I3
tp436
a(F1.8381607510617364
S'Cell[3].dend[8] syn_ = new FastInhib(0.5)'
p437
I3
(dp438
g239
F0.07142857142857142
sg240
F1.0
sg241
I9
sg242
g7
(g8
(I0
tp439
g10
tp440
Rp441
(I1
(I3
tp442
g249
I00
S'\x9d/\xea\xd2c\x0c5\xc0\x9e\x0cf\xd8xGN\xc0\x00\x00\x00\x80\xebQ\xf4?'
p443
tp444
bsg254
S'Cell[2].axon[158]'
p445
sI9
I15
tp446
a(F1.794905181099599
S'Cell[3].dend[36] syn_ = new FastInhib(0.7)'
p447
I3
(dp448
g239
F0.6428571428571428
sg240
F1.0
sg241
I9
sg242
g7
(g8
(I0
tp449
g10
tp450
Rp451
(I1
(I3
tp452
g249
I00
S"\xd0\xe9\xf5\xc1\xb3\x16E@\xf9)\x86S\x99\xc1\t@\x98!\xde\xfb'\x03W\xc0"
p453
tp454
bsg254
S'Cell[2].axon[202]'
p455
sI9
I15
tp456
a(F1.3660764170032034
S'Cell[9].dend[5] syn_ = new FastInhib(0.7)'
p457
I9
(dp458
g239
F0.16666666666666666
sg240
F1.0
sg241
I9
sg242
g7
(g8
(I0
tp459
g10
tp460
Rp461
(I1
(I3
tp462
g249
I00
S'\x81(\xa9\x8b\xcd\x920\xc0V\x93\xd7\xd0\x1c\xecH\xc0\xd5\xb7.Uo\xf5J\xc0'
p463
tp464
bsg254
S'Cell[2].axon[240]'
p465
sI9
I39
tp466
a(F2.473526100594272
S'Cell[3].dend[53] syn_ = new FastInhib(0.833333333333)'
p467
I3
(dp468
g239
F0.16666666666666666
sg240
F1.0
sg241
I9
sg242
g7
(g8
(I0
tp469
g10
tp470
Rp471
(I1
(I3
tp472
g249
I00
S'\xc0\x8bX8\x1f\xb1+@\x05\x94L\xfd\xe4QS\xc0\x1b\xb8\x84e`t)@'
p473
tp474
bsg254
S'Cell[2].axon[305]'
p475
sI9
I15
tp476
a(F2.47491167757801
S'Cell[8].dend[13] syn_ = new ExpSid(0.3)'
p477
I8
(dp478
g239
F0.5
sg240
F1.0
sg241
I9
sg242
g7
(g8
(I0
tp479
g10
tp480
Rp481
(I1
(I3
tp482
g249
I00
S'\xfa\xdaq\x14|\x15\x13\xc0\xc3\xe9\r\x06[\x83\x12\xc0\x00\x00\x00\xc0\xf5(\x02\xc0'
p483
tp484
bsg254
S'Cell[2].axon[311]'
p485
sI9
I35
tp486
a(F1.931237061310055
S'Cell[0].dend[44] syn_ = new FastInhib(0.166666666667)'
p487
I0
(dp488
g239
F0.1
sg240
F1.0
sg241
I9
sg242
g7
(g8
(I0
tp489
g10
tp490
Rp491
(I1
(I3
tp492
g249
I00
S'\xe1x\xd6\xc0\xb7\x8b"@\xeb\xea~\x1d\xb0\xc5\xf4\xbf"\x1b\x97)\x10*\x07\xc0'
p493
tp494
bsg254
S'Cell[2].axon[313]'
p495
sI9
I3
tp496
a(F1.1976829877747082
S'Cell[3].dend[37] syn_ = new FastInhib(0.3)'
p497
I3
(dp498
g239
F0.16666666666666666
sg240
F1.0
sg241
I9
sg242
g7
(g8
(I0
tp499
g10
tp500
Rp501
(I1
(I3
tp502
g249
I00
S"I\x98\xbc\xa9\xfd\x16E@I\x98\xbc\x89'S6@\x00\x00\x00\x00)\x9c5\xc0"
p503
tp504
bsg254
S'Cell[2].axon[377]'
p505
sI9
I15
tp506
a(F1.422887206471905
S'Cell[5].apic[25] syn_ = new ExpSid(0.833333333333)'
p507
I5
(dp508
g239
F0.16666666666666666
sg240
F1.0
sg241
I13
sg242
g7
(g8
(I0
tp509
g10
tp510
Rp511
(I1
(I3
tp512
g249
I00
S"\xba`\x12\xe03)I@N\x99&\xeeH\xf6X\xc0tc\xf1\x07SV'\xc0"
p513
tp514
bsg254
S'Cell[3].axon[2]'
p515
sI13
I23
tp516
a(F1.7599011405446614
S'Cell[2].dend[25] syn_ = new ExpSid(0.166666666667)'
p517
I2
(dp518
g239
F0.49999999999999994
sg240
F1.0
sg241
I13
sg242
g7
(g8
(I0
tp519
g10
tp520
Rp521
(I1
(I3
tp522
g249
I00
S'\xe6U\xad\xd8j\t8\xc0F\x9a\x16%\x8a\x1dR\xc0\x00\x00\x00\x80=\x8a5\xc0'
p523
tp524
bsg254
S'Cell[3].axon[12]'
p525
sI13
I11
tp526
a(F2.1859577285361214
S'Cell[2].apic[71] syn_ = new ExpSid(0.5)'
p527
I2
(dp528
g239
F0.8333333333333333
sg240
F1.0
sg241
I21
sg242
g7
(g8
(I0
tp529
g10
tp530
Rp531
(I1
(I3
tp532
g249
I00
S'\xf8\xf8\xa7>lPB\xc0\xac\xef\x19r2Jq@\xc0\xcf\x1a\xf9\xf3LP\xc0'
p533
tp534
bsg254
S'Cell[5].axon[60]'
p535
sI21
I11
tp536
a(F1.8858335935335193
S'Cell[1].apic[270] syn_ = new ExpSid(0.5)'
p537
I1
(dp538
g239
F0.5
sg240
F1.0
sg241
I37
sg242
g7
(g8
(I0
tp539
g10
tp540
Rp541
(I1
(I3
tp542
g249
I00
S'w&.\x7f\xeb\xf9A\xc0\x08\xc8\xfbj\xb6a]\xc0CFE\x7f\x9d\xcc"\xc0'
p543
tp544
bsg254
S'Cell[9].axon[17]'
p545
sI37
I7
tp546
a(F2.4447815404544766
S'Cell[7].dend[23] syn_ = new AmpaNmda(0.833333333333)'
p547
I7
(dp548
S'seg'
p549
F0.5
sS'hostfrom'
p550
F2.0
sS'gid'
p551
I2
sS'coords'
p552
g7
(g8
(I0
tp553
g10
tp554
Rp555
(I1
(I3
tp556
g14
(S'f8'
p557
I0
I1
tp558
Rp559
(I3
S'<'
p560
NNNI-1
I-1
I0
tp561
bI00
S'\xe8\x1d\x9c?\xd2\xb7P\xc0h\xe2YbR\x96-@\x00\x00\x00 \x85\xab4@'
p562
tp563
bsS'secnames'
p564
S'Cell[0].axon[5]'
p565
sI2
I31
tp566
a(F2.1225788243740293
S'Cell[3].dend[27] syn_ = new FastInhib(0.833333333333)'
p567
I3
(dp568
g549
F0.5
sg550
F2.0
sg551
I2
sg552
g7
(g8
(I0
tp569
g10
tp570
Rp571
(I1
(I3
tp572
g559
I00
S'\xe8\x04V\x99\xce\xd8Q\xc0\x9e\x0e\xb0\x1bRvV\xc0\xc0_\xcd^5y7@'
p573
tp574
bsg564
S'Cell[0].axon[7]'
p575
sI2
I15
tp576
a(F1.8947224134854823
S'Cell[3].dend[27] syn_ = new FastInhib(0.833333333333)'
p577
I3
(dp578
g549
F0.5
sg550
F2.0
sg551
I2
sg552
g7
(g8
(I0
tp579
g10
tp580
Rp581
(I1
(I3
tp582
g559
I00
S'\x00\x00\x00\xe0\xa3xR\xc0\x00\x00\x00\x10\xae\xb7V\xc0\x00\x00\x00\xd0\xccL9@'
p583
tp584
bsg564
S'Cell[0].axon[12]'
p585
sI2
I15
tp586
a(F2.4503019891667805
S'Cell[8].dend[14] syn_ = new AmpaNmda(0.5)'
p587
I8
(dp588
g549
F0.5
sg550
F2.0
sg551
I38
sg552
g7
(g8
(I0
tp589
g10
tp590
Rp591
(I1
(I3
tp592
g559
I00
S'\xb49\xbb\x0fR\x8dH@ \xf2T\xe9\xa8\x00\xf9?\x00\x00\x00\x80\xebQ\xe8\xbf'
p593
tp594
bsg564
S'Cell[9].axon[0]'
p595
sI38
I35
tp596
a(F1.8100626184757607
S'Cell[3].dend[63] syn_ = new FastInhib(0.5)'
p597
I3
(dp598
g549
F0.8333333333333333
sg550
F2.0
sg551
I6
sg552
g7
(g8
(I0
tp599
g10
tp600
Rp601
(I1
(I3
tp602
g559
I00
S'j\xfb\xc1^\xd6\xbb\x1a@\xef\xcdF\xc9\x16,l@\x00\x00\x00\x80\x14.%@'
p603
tp604
bsg564
S'Cell[1].axon[5]'
p605
sI6
I15
tp606
a(F2.201021198199034
S'Cell[0].dend[6] syn_ = new FastInhib(0.5)'
p607
I0
(dp608
g549
F0.07142857142857142
sg550
F2.0
sg551
I6
sg552
g7
(g8
(I0
tp609
g10
tp610
Rp611
(I1
(I3
tp612
g559
I00
S'\xeb\xa4\xeb\xaa\x9a\xf81\xc0\xe7R\xaa/"6\x1b\xc0\xa9\xc8q\x08\x9d\xbc\xe7\xbf'
p613
tp614
bsg564
S'Cell[1].axon[230]'
p615
sI6
I3
tp616
a(F2.4206691852176876
S'Cell[8].dend[10] syn_ = new AmpaNmda(0.5)'
p617
I8
(dp618
g549
F0.5
sg550
F2.0
sg551
I10
sg552
g7
(g8
(I0
tp619
g10
tp620
Rp621
(I1
(I3
tp622
g559
I00
S"\x00\x00\x00 \x85\xab2@\x00\x00\x00\x80\xc2\xf5'@\x00\x00\x00 \\\x8f\x1d@"
p623
tp624
bsg564
S'Cell[2].soma[0]'
p625
sI10
I35
tp626
a(F1.5420108751886137
S'Cell[5].apic[28] syn_ = new AmpaNmda(0.833333333333)'
p627
I5
(dp628
g549
F0.8333333333333333
sg550
F2.0
sg551
I14
sg552
g7
(g8
(I0
tp629
g10
tp630
Rp631
(I1
(I3
tp632
g559
I00
S'\xbe\xd9?\xe9\xd5\x86D@&F\x88\x88\x1f)a\xc0\xda:\x9e\x84\xdc\x9c/@'
p633
tp634
bsg564
S'Cell[3].axon[5]'
p635
sI14
I23
tp636
a(F1.8754716946199852
S'Cell[2].dend[26] syn_ = new AmpaNmda(0.5)'
p637
I2
(dp638
g549
F0.5
sg550
F2.0
sg551
I18
sg552
g7
(g8
(I0
tp639
g10
tp640
Rp641
(I1
(I3
tp642
g559
I00
S'\x1a\xb8\xf5\xcd\xcb\xa2\r\xc06\x98\xc5\rH\x00O\xc0\x9c\xea+\xa7x\x8a2\xc0'
p643
tp644
bsg564
S'Cell[4].axon[32]'
p645
sI18
I11
tp646
a(F1.2704452944318596
S'Cell[0].dend[0] syn_ = new FastInhib(0.5)'
p647
I0
(dp648
g549
F0.5
sg550
F2.0
sg551
I18
sg552
g7
(g8
(I0
tp649
g10
tp650
Rp651
(I1
(I3
tp652
g559
I00
S'\x19\xd5\x19\x01\xbdb0\xc0\x8c(\xbe\x8a9\xef%\xc0<\x02}\x11\x8a\x1a\xef\xbf'
p653
tp654
bsg564
S'Cell[4].axon[162]'
p655
sI18
I3
tp656
a(F1.7737362798460803
S'Cell[0].dend[41] syn_ = new FastInhib(0.3)'
p657
I0
(dp658
g549
F0.5
sg550
F2.0
sg551
I18
sg552
g7
(g8
(I0
tp659
g10
tp660
Rp661
(I1
(I3
tp662
g559
I00
S'\x18\xe79\xab,\x907@\x1d\x85\xd0\xb8\x8d\x13;@W\x137\xb6B\xcb\xfb\xbf'
p663
tp664
bsg564
S'Cell[4].axon[207]'
p665
sI18
I3
tp666
a(F1.7906369225832528
S'Cell[1].apic[75] syn_ = new AmpaNmda(0.166666666667)'
p667
I1
(dp668
g549
F0.7222222222222223
sg550
F2.0
sg551
I22
sg552
g7
(g8
(I0
tp669
g10
tp670
Rp671
(I1
(I3
tp672
g559
I00
S'K\x86\x98]\x03\x84V\xc0/\t7H\xb6bY@\x00\x00\x00@\xe1z\x15\xc0'
p673
tp674
bsg564
S'Cell[5].axon[6]'
p675
sI22
I7
tp676
a(F0.6884167189641288
S'Cell[2].dend[46] syn_ = new AmpaNmda(0.5)'
p677
I2
(dp678
g549
F0.07142857142857142
sg550
F2.0
sg551
I26
sg552
g7
(g8
(I0
tp679
g10
tp680
Rp681
(I1
(I3
tp682
g559
I00
S'\x17\xd0.$:\x8c<@\xf1\xef\xfa\xe43\xe6I\xc0s\x18\x9b\x08\x8bi0@'
p683
tp684
bsg564
S'Cell[6].axon[46]'
p685
sI26
I11
tp686
a(F2.4509471962398734
S'Cell[0].dend[18] syn_ = new FastInhib(0.5)'
p687
I0
(dp688
g549
F0.21428571428571427
sg550
F2.0
sg551
I26
sg552
g7
(g8
(I0
tp689
g10
tp690
Rp691
(I1
(I3
tp692
g559
I00
S'\xa5\xf9\xb7g\xe9\x908\xc0T\xbd\xe6\r\x80\xc3\xf1?Dl+\x11\xae\x0f\x05\xc0'
p693
tp694
bsg564
S'Cell[6].axon[63]'
p695
sI26
I3
tp696
a(F1.7122702520720778
S'Cell[9].dend[9] syn_ = new FastInhib(0.5)'
p697
I9
(dp698
g549
F0.5
sg550
F2.0
sg551
I30
sg552
g7
(g8
(I0
tp699
g10
tp700
Rp701
(I1
(I3
tp702
g559
I00
S'\xe6\xa3\x9cO\xd9\x04J@\xc5\xb5\xb0\x13\xffIE\xc0\x18\xe2\x10\x16\xb5^(@'
p703
tp704
bsg564
S'Cell[7].axon[100]'
p705
sI30
I39
tp706
a(F2.449878682832831
S'Cell[4].dend[21] syn_ = new AmpaNmda(0.357142857143)'
p707
I4
(dp708
g549
F0.30000000000000004
sg550
F2.0
sg551
I30
sg552
g7
(g8
(I0
tp709
g10
tp710
Rp711
(I1
(I3
tp712
g559
I00
S'm\xe5\xd8>\xb1\x80T@2n\x17\xf0\x83j@@YKMNG[I\xc0'
p713
tp714
bsg564
S'Cell[7].axon[127]'
p715
sI30
I19
tp716
a(F1.5890701718575555
S'Cell[6].dend[3] syn_ = new FastInhib(0.833333333333)'
p717
I6
(dp718
g549
F0.16666666666666666
sg550
F2.0
sg551
I30
sg552
g7
(g8
(I0
tp719
g10
tp720
Rp721
(I1
(I3
tp722
g559
I00
S'\xb1Q\xbe\xab\xc6\x05R@\x11H\xd1\xb0\x89\xcb\x02@\xa3.\x8b/K\xfc\xf0\xbf'
p723
tp724
bsg564
S'Cell[7].axon[143]'
p725
sI30
I27
tp726
a(F1.9572417827119424
S'Cell[6].dend[9] syn_ = new FastInhib(0.5)'
p727
I6
(dp728
g549
F0.5
sg550
F2.0
sg551
I30
sg552
g7
(g8
(I0
tp729
g10
tp730
Rp731
(I1
(I3
tp732
g559
I00
S'\x9fY\xa4c\xba\xf2\x1b@\xad\xe2V\xc8\x89v9@\xc8>\xe3\xd6\ne\xd1?'
p733
tp734
bsg564
S'Cell[7].axon[241]'
p735
sI30
I27
tp736
a(F1.4536689442685535
S'Cell[0].dend[40] syn_ = new FastInhib(0.5)'
p737
I0
(dp738
g549
F0.5
sg550
F2.0
sg551
I30
sg552
g7
(g8
(I0
tp739
g10
tp740
Rp741
(I1
(I3
tp742
g559
I00
S'\x1e\\L1Aq7@4^\xc3\xab\xbf\r(@\x00\x00\x00\xa0G\xe1;\xc0'
p743
tp744
bsg564
S'Cell[7].axon[253]'
p745
sI30
I3
tp746
a(F2.144881671253913
S'Cell[7].dend[15] syn_ = new ExpSid(0.5)'
p747
I7
(dp748
S'seg'
p749
F0.5
sS'hostfrom'
p750
F3.0
sS'gid'
p751
I35
sS'coords'
p752
g7
(g8
(I0
tp753
g10
tp754
Rp755
(I1
(I3
tp756
g14
(S'f8'
p757
I0
I1
tp758
Rp759
(I3
S'<'
p760
NNNI-1
I-1
I0
tp761
bI00
S"\x8d\xac\t\xe9\xa2'B\xc0\xae6\x1a5\x8a\x0eD\xc0\x10vr|\xad\xf2\x02@"
p762
tp763
bsS'secnames'
p764
S'Cell[8].axon[11]'
p765
sI35
I31
tp766
a(F1.6526989333873188
S'Cell[1].apic[79] syn_ = new ExpSid(0.1)'
p767
I1
(dp768
g749
F0.5
sg750
F3.0
sg751
I3
sg752
g7
(g8
(I0
tp769
g10
tp770
Rp771
(I1
(I3
tp772
g759
I00
S"\x86\xc5\xd3\xa6H\xc27@\xeb\xdc10'zX@\x00\x00\x00\xc0\xcc\xcc\x10\xc0"
p773
tp774
bsg764
S'Cell[0].axon[2]'
p775
sI3
I7
tp776
a(F1.9728054367588819
S'Cell[7].dend[13] syn_ = new ExpSid(0.5)'
p777
I7
(dp778
g749
F0.30000000000000004
sg750
F3.0
sg751
I3
sg752
g7
(g8
(I0
tp779
g10
tp780
Rp781
(I1
(I3
tp782
g759
I00
S";\x18\xbc\xb3e'Z\xc0\xb0\x98J{\x14\x8fF@\x94\x88\x92\x91\xe1\x04H\xc0"
p783
tp784
bsg764
S'Cell[0].axon[237]'
p785
sI3
I31
tp786
a(F2.3770596379575193
S'Cell[1].apic[269] syn_ = new ExpSid(0.5)'
p787
I1
(dp788
g749
F0.5
sg750
F3.0
sg751
I3
sg752
g7
(g8
(I0
tp789
g10
tp790
Rp791
(I1
(I3
tp792
g759
I00
S'vl\x19\xc3\x07\x11@\xc0$\xb3\x18$YDY\xc0\x00\x00\x00\xa0\x99\x99&\xc0'
p793
tp794
bsg764
S'Cell[0].axon[269]'
p795
sI3
I7
tp796
a(F1.2721048873461596
S'Cell[0].dend[39] syn_ = new FastInhib(0.5)'
p797
I0
(dp798
g749
F0.5
sg750
F3.0
sg751
I15
sg752
g7
(g8
(I0
tp799
g10
tp800
Rp801
(I1
(I3
tp802
g759
I00
S'\x0c\x00\x00\xa0\xf5(\x19@\x00\x00\x00\xa0G\xe1\x1b\xc0\x00\x00\x00@\xe1z\xf8\xbf'
p803
tp804
bsg764
S'Cell[3].soma[0]'
p805
sI15
I3
tp806
a(F1.6569048088471166
S'Cell[9].dend[54] syn_ = new FastInhib(0.1)'
p807
I9
(dp808
g749
F0.30000000000000004
sg750
F3.0
sg751
I15
sg752
g7
(g8
(I0
tp809
g10
tp810
Rp811
(I1
(I3
tp812
g759
I00
S"\x07(\xaf\x8aV'U@6N\x84aM\x9e\x17\xc0=\xacA\xb3]N\x1e\xc0"
p813
tp814
bsg764
S'Cell[3].axon[89]'
p815
sI15
I39
tp816
a(F1.0440173923125984
S'Cell[2].dend[46] syn_ = new ExpSid(0.3)'
p817
I2
(dp818
g749
F0.8333333333333333
sg750
F3.0
sg751
I15
sg752
g7
(g8
(I0
tp819
g10
tp820
Rp821
(I1
(I3
tp822
g759
I00
S':y@\x173\xe76@\x03]\xecw\xcd\xceL\xc0aH\x12\x0e\xd6\xdf\xf3\xbf'
p823
tp824
bsg764
S'Cell[3].axon[102]'
p825
sI15
I11
tp826
a(F1.230286993563834
S'Cell[1].apic[154] syn_ = new ExpSid(0.5)'
p827
I1
(dp828
g749
F0.5
sg750
F3.0
sg751
I15
sg752
g7
(g8
(I0
tp829
g10
tp830
Rp831
(I1
(I3
tp832
g759
I00
S'\x00\x00\x00p=\xcaA\xc0\x00\x00\x00\xe0z\xc0i\xc0\x00\x00\x00\xa8G\xe1\xd2\xbf'
p833
tp834
bsg764
S'Cell[3].axon[140]'
p835
sI15
I7
tp836
a(F2.402078250842083
S'Cell[1].apic[253] syn_ = new ExpSid(0.166666666667)'
p837
I1
(dp838
g749
F0.7
sg750
F3.0
sg751
I15
sg752
g7
(g8
(I0
tp839
g10
tp840
Rp841
(I1
(I3
tp842
g759
I00
S'\xd3\x18\xcc4\xff\xd1U\xc0\x01.\xb9\xb2\x8c\x8bX\xc0\xa1\xb4d\xa0g\x82\x1e@'
p843
tp844
bsg764
S'Cell[3].axon[176]'
p845
sI15
I7
tp846
a(F1.6317140766523133
S'Cell[9].dend[13] syn_ = new FastInhib(0.5)'
p847
I9
(dp848
g749
F0.5
sg750
F3.0
sg751
I15
sg752
g7
(g8
(I0
tp849
g10
tp850
Rp851
(I1
(I3
tp852
g759
I00
S'\x80w_\x80J\x9fB@\xcf]\x01\xd1\xea\xfc;\xc0\x00\x00\x00@\xe1\xfa9@'
p853
tp854
bsg764
S'Cell[3].axon[184]'
p855
sI15
I39
tp856
a(F1.570104602554472
S'Cell[7].apic[23] syn_ = new ExpSid(0.1)'
p857
I7
(dp858
g749
F0.5
sg750
F3.0
sg751
I15
sg752
g7
(g8
(I0
tp859
g10
tp860
Rp861
(I1
(I3
tp862
g759
I00
S'\x00\x00\x00\xa0\xc2U1\xc0\x00\x00\x00P\xe1\x1a9@\x00\x00\x00\x90\xebq2\xc0'
p863
tp864
bsg764
S'Cell[3].axon[305]'
p865
sI15
I31
tp866
a(F2.249971406585706
S'Cell[0].dend[23] syn_ = new FastInhib(0.166666666667)'
p867
I0
(dp868
g749
F0.5
sg750
F3.0
sg751
I15
sg752
g7
(g8
(I0
tp869
g10
tp870
Rp871
(I1
(I3
tp872
g759
I00
S'\x85\xe2\x13\xc0\x1dT6\xc0\xc9\xe9\xb4\x0f\r F@\x9e\xc3\xe43\xf0\xd5*\xc0'
p873
tp874
bsg764
S'Cell[3].axon[315]'
p875
sI15
I3
tp876
a(F2.260596575847271
S'Cell[7].apic[26] syn_ = new ExpSid(0.0333333333333)'
p877
I7
(dp878
g749
F0.5
sg750
F3.0
sg751
I15
sg752
g7
(g8
(I0
tp879
g10
tp880
Rp881
(I1
(I3
tp882
g759
I00
S'\x00\x00\x00\xf0(\xbc>\xc0\x00\x00\x0003#K@\x00\x00\x00p=\n\x15\xc0'
p883
tp884
bsg764
S'Cell[3].axon[357]'
p885
sI15
I31
tp886
a(F2.3204676915272344
S'Cell[3].dend[0] syn_ = new FastInhib(0.5)'
p887
I3
(dp888
g749
F0.30000000000000004
sg750
F3.0
sg751
I19
sg752
g7
(g8
(I0
tp889
g10
tp890
Rp891
(I1
(I3
tp892
g759
I00
S'\xeb\x9a\xc0\xb9?P\xe4\xbf\x07]\x81\xdf\xcf\x1b5\xc0\xecA\xa1}3\xe8\x14\xc0'
p893
tp894
bsg764
S'Cell[4].axon[0]'
p895
sI19
I15
tp896
a(F1.8741228845777362
S'Cell[3].dend[59] syn_ = new FastInhib(0.5)'
p897
I3
(dp898
g749
F0.8636363636363638
sg750
F3.0
sg751
I23
sg752
g7
(g8
(I0
tp899
g10
tp900
Rp901
(I1
(I3
tp902
g759
I00
S'\xecN9=le!@Q\xb8\xbb\x0bC\xbfB@\x81h\xd5\xa0\xc2v\xf0?'
p903
tp904
bsg764
S'Cell[5].axon[8]'
p905
sI23
I15
tp906
a(F1.9462366422854347
S'Cell[3].dend[8] syn_ = new FastInhib(0.5)'
p907
I3
(dp908
g749
F0.1
sg750
F3.0
sg751
I39
sg752
g7
(g8
(I0
tp909
g10
tp910
Rp911
(I1
(I3
tp912
g759
I00
S'<ZDj158\xc0KZ\x02\x16\x81*O\xc0rT\xfd%k\xd4\xf7?'
p913
tp914
bsg764
S'Cell[9].axon[54]'
p915
sI39
I15
tp916
a(F1.398412471269339
S'Cell[4].dend[33] syn_ = new ExpSid(0.928571428571)'
p917
I4
(dp918
g749
F0.8333333333333333
sg750
F3.0
sg751
I39
sg752
g7
(g8
(I0
tp919
g10
tp920
Rp921
(I1
(I3
tp922
g759
I00
S'\xd0d\xf9d\xear]@\xdc\xac\xb3\xeb,nD\xc0\x00\x00\x00`\x8f\x822\xc0'
p923
tp924
bsg764
S'Cell[9].axon[400]'
p925
sI39
I19
tp926
a(F2.3564023792970836
S'Cell[1].apic[178] syn_ = new ExpSid(0.166666666667)'
p927
I1
(dp928
g749
F0.5
sg750
F3.0
sg751
I39
sg752
g7
(g8
(I0
tp929
g10
tp930
Rp931
(I1
(I3
tp932
g759
I00
S'\x10\x07[8\xfc)a@\x16\x0bs\xce\xca%h\xc0D^dNu\x8d7@'
p933
tp934
bsg764
S'Cell[9].axon[475]'
p935
sI39
I7
tp936
a(F2.238431369968656
S'Cell[1].apic[175] syn_ = new ExpSid(0.833333333333)'
p937
I1
(dp938
g749
F0.5
sg750
F3.0
sg751
I39
sg752
g7
(g8
(I0
tp939
g10
tp940
Rp941
(I1
(I3
tp942
g759
I00
S'\xfa\xdek\xe3\x0cGP@VidP\xbabh\xc0\x0e5\x97\xc0y\x881@'
p943
tp944
bsg764
S'Cell[9].axon[492]'
p945
sI39
I7
tp946
a(F1.6268740120481406
S'Cell[1].apic[162] syn_ = new ExpSid(0.5)'
p947
I1
(dp948
g749
F0.5
sg750
F3.0
sg751
I39
sg752
g7
(g8
(I0
tp949
g10
tp950
Rp951
(I1
(I3
tp952
g759
I00
S'\xe8\xd0\x87\xd1t\xfbF@^4\x1e\x97\xfe\xd0k\xc0:|\x01\x07F|\xd7?'
p953
tp954
bsg764
S'Cell[9].axon[507]'
p955
sI39
I7
tp956
a(F1.9185851411902566
S'Cell[0].dend[39] syn_ = new FastInhib(0.5)'
p957
I0
(dp958
g749
F0.5
sg750
F3.0
sg751
I27
sg752
g7
(g8
(I0
tp959
g10
tp960
Rp961
(I1
(I3
tp962
g759
I00
S'\x01\x00\x00\xe0\xcc\xcc\x19@\x00\x00\x00\x80\xebQ\x14\xc0\x00\x00\x00\x80\x14\xae\r\xc0'
p963
tp964
bsg764
S'Cell[6].soma[0]'
p965
sI27
I3
tp966
a(F0.9015660936768576
S'Cell[4].dend[7] syn_ = new ExpSid(0.5)'
p967
I4
(dp968
g749
F0.7
sg750
F3.0
sg751
I27
sg752
g7
(g8
(I0
tp969
g10
tp970
Rp971
(I1
(I3
tp972
g759
I00
S"\x82\xb4C9\xf50'\xc0T\xe4\xf5,8\x8c\x18@\x8c\xf4\xfe\xca\x0c\xef/\xc0"
p973
tp974
bsg764
S'Cell[6].axon[12]'
p975
sI27
I19
tp976
a(F2.103138027411262
S'Cell[4].dend[25] syn_ = new ExpSid(0.357142857143)'
p977
I4
(dp978
g749
F0.8333333333333333
sg750
F3.0
sg751
I27
sg752
g7
(g8
(I0
tp979
g10
tp980
Rp981
(I1
(I3
tp982
g759
I00
S'\x10\xa2*\xb1\x93\xb5G@J\xf1\x08S\x8a\xe5A\xc0\x00\x00\x00`f&<\xc0'
p983
tp984
bsg764
S'Cell[6].axon[34]'
p985
sI27
I19
tp986
a(F2.138232497356504
S'Cell[1].dend[29] syn_ = new ExpSid(0.9)'
p987
I1
(dp988
g749
F0.16666666666666666
sg750
F3.0
sg751
I27
sg752
g7
(g8
(I0
tp989
g10
tp990
Rp991
(I1
(I3
tp992
g759
I00
S'\x1bs\x92\xd6\xfd\x90W@\xb6\x0e-Yc\xb0P\xc0`\xc9\x9fO\xa1\xce\x0f@'
p993
tp994
bsg764
S'Cell[6].axon[108]'
p995
sI27
I7
tp996
a(F1.5340686972615478
S'Cell[1].apic[271] syn_ = new ExpSid(0.5)'
p997
I1
(dp998
g749
F0.16666666666666666
sg750
F3.0
sg751
I27
sg752
g7
(g8
(I0
tp999
g10
tp1000
Rp1001
(I1
(I3
tp1002
g759
I00
S'4d]\xfe\x80\xacN@-b\xd0\xbe\xf8qY\xc0\xbb\xc93\xcbeb0\xc0'
p1003
tp1004
bsg764
S'Cell[6].axon[111]'
p1005
sI27
I7
tp1006
a(F1.7292685638425598
S'Cell[0].apic[2] syn_ = new FastInhib(0.833333333333)'
p1007
I0
(dp1008
g749
F0.5
sg750
F3.0
sg751
I27
sg752
g7
(g8
(I0
tp1009
g10
tp1010
Rp1011
(I1
(I3
tp1012
g759
I00
S'hG\xd8\x92\x0e&\x13\xc0\x90\xaf\x18\xc8\xe1\xd4P\xc0:\xbb\x9c\x07\x89\xa39\xc0'
p1013
tp1014
bsg764
S'Cell[6].axon[119]'
p1015
sI27
I3
tp1016
a(F0.5422955032869673
S'Cell[0].dend[32] syn_ = new FastInhib(0.5)'
p1017
I0
(dp1018
g749
F0.5
sg750
F3.0
sg751
I27
sg752
g7
(g8
(I0
tp1019
g10
tp1020
Rp1021
(I1
(I3
tp1022
g759
I00
S'&\x8a\xcb\xd2@\xc8G\xc0\xee\xd7\x19\x1a\xe8\xa05\xc0}\x0f[\xec$U!@'
p1023
tp1024
bsg764
S'Cell[6].axon[134]'
p1025
sI27
I3
tp1026
a(F1.9162366595717084
S'Cell[0].dend[27] syn_ = new FastInhib(0.5)'
p1027
I0
(dp1028
g749
F0.5
sg750
F3.0
sg751
I27
sg752
g7
(g8
(I0
tp1029
g10
tp1030
Rp1031
(I1
(I3
tp1032
g759
I00
S'\xde\x94i\xe8\xad\xce8\xc0\x83\x8b0\xa0\xebq3\xc0\x988\x97\x88\xb3]\xe9?'
p1033
tp1034
bsg764
S'Cell[6].axon[176]'
p1035
sI27
I3
tp1036
a(F1.6374411462257443
S'Cell[0].apic[2] syn_ = new FastInhib(0.166666666667)'
p1037
I0
(dp1038
g749
F0.5
sg750
F3.0
sg751
I27
sg752
g7
(g8
(I0
tp1039
g10
tp1040
Rp1041
(I1
(I3
tp1042
g759
I00
S"\xbd\x12\xccO\x1c\xb1'\xc0]\xa6l\xdc\xc1\xd0H\xc0\x84\x829\xa2K&\x00\xc0"
p1043
tp1044
bsg764
S'Cell[6].axon[264]'
p1045
sI27
I3
tp1046
a(F2.010487830360806
S'Cell[5].dend[32] syn_ = new ExpSid(0.5)'
p1047
I5
(dp1048
g749
F0.16666666666666666
sg750
F3.0
sg751
I27
sg752
g7
(g8
(I0
tp1049
g10
tp1050
Rp1051
(I1
(I3
tp1052
g759
I00
S'\x90o\xfa!\x81K\x1d\xc0\x185s\n\xa8\x9fb@\xeaxx\xc8\xc2\xff-\xc0'
p1053
tp1054
bsg764
S'Cell[6].axon[314]'
p1055
sI27
I23
tp1056
a(F1.825261184068166
S'Cell[1].apic[279] syn_ = new ExpSid(0.166666666667)'
p1057
I1
(dp1058
g749
F0.5
sg750
F3.0
sg751
I27
sg752
g7
(g8
(I0
tp1059
g10
tp1060
Rp1061
(I1
(I3
tp1062
g759
I00
S'\x077\xb0\xd4X:=@\x97jbKc\x8f%\xc0\x8bl\x06\x95\xb6\xcdO\xc0'
p1063
tp1064
bsg764
S'Cell[6].axon[331]'
p1065
sI27
I7
tp1066
a(F1.8308560544704544
S'Cell[5].dend[24] syn_ = new ExpSid(0.5)'
p1067
I5
(dp1068
g749
F0.8333333333333333
sg750
F3.0
sg751
I27
sg752
g7
(g8
(I0
tp1069
g10
tp1070
Rp1071
(I1
(I3
tp1072
g759
I00
S"Ba'x:\xcb*@\x9a\xa8\x8a\xb9i\xb8^@\xe6\xbb\xc3\xe1\x8dw8\xc0"
p1073
tp1074
bsg764
S'Cell[6].axon[344]'
p1075
sI27
I23
tp1076
a.