(lp0
(F0.9860927003770152
S'Cell[0].apic[13] syn_ = new AmpaNmda(0.166666666667)'
p1
I0
(dp2
S'seg'
p3
F0.5
sS'hostfrom'
p4
F1.0
sS'gid'
p5
I42
sS'coords'
p6
cnumpy.core.multiarray
_reconstruct
p7
(cnumpy
ndarray
p8
(I0
tp9
S'b'
p10
tp11
Rp12
(I1
(I3
tp13
cnumpy
dtype
p14
(S'f8'
p15
I0
I1
tp16
Rp17
(I3
S'<'
p18
NNNI-1
I-1
I0
tp19
bI00
S'\x02\xe1\xaa\xab\xe1RF@#\xe89\xbf\xba\x89U\xc0\xc5b\x1a\xc2\xe1\xe8\x0c\xc0'
p20
tp21
bsS'secnames'
p22
S'Cell[8].axon[9]'
p23
sI42
I5
tp24
a(F2.2883388122017445
S'Cell[5].dend[33] syn_ = new ExpSid(0.833333333333)'
p25
I5
(dp26
g3
F0.5
sg4
F1.0
sg5
I47
sg6
g7
(g8
(I0
tp27
g10
tp28
Rp29
(I1
(I3
tp30
g17
I00
S'\x00\x00\x00\x90\xc2\xc5A\xc0\x00\x00\x00\xb0p}S\xc0\x00\x00\x00X\x8fB\x14@'
p31
tp32
bsg22
S'Cell[9].axon[2]'
p33
sI47
I30
tp34
a(F1.5308375107969725
S'Cell[7].dend[3] syn_ = new ExpSid(0.5)'
p35
I7
(dp36
g3
F0.21428571428571427
sg4
F1.0
sg5
I47
sg6
g7
(g8
(I0
tp37
g10
tp38
Rp39
(I1
(I3
tp40
g17
I00
S'\x96\xb3Y\x1e\x0b5P\xc0\x02I\xad\x91\x15\xc0O\xc0@BF1\xbe\xfe\x1e@'
p41
tp42
bsg22
S'Cell[9].axon[39]'
p43
sI47
I40
tp44
a(F2.284310612427593
S'Cell[5].dend[1] syn_ = new ExpSid(0.166666666667)'
p45
I5
(dp46
g3
F0.8333333333333333
sg4
F1.0
sg5
I27
sg6
g7
(g8
(I0
tp47
g10
tp48
Rp49
(I1
(I3
tp50
g17
I00
S'\x1b;/\x08\x1f~-\xc0\x19\xb1;\xbb\xb6!C\xc0\xa2\xc2\xcb\x95\xea\x0c\xb4?'
p51
tp52
bsg22
S'Cell[5].axon[6]'
p53
sI27
I30
tp54
a(F1.7530222109112499
S'Cell[5].dend[43] syn_ = new ExpSid(0.5)'
p55
I5
(dp56
g3
F0.49999999999999994
sg4
F1.0
sg5
I27
sg6
g7
(g8
(I0
tp57
g10
tp58
Rp59
(I1
(I3
tp60
g17
I00
S"\x90\x003\x00'\x01Q\xc0\xebhR>bg!\xc0m\xd4Yt\x86q;\xc0"
p61
tp62
bsg22
S'Cell[5].axon[38]'
p63
sI27
I30
tp64
a(F1.1088018961902286
S'Cell[2].apic[22] syn_ = new ExpSid(0.5)'
p65
I2
(dp66
S'seg'
p67
F0.3461538461538462
sS'hostfrom'
p68
F2.0
sS'gid'
p69
I3
sS'coords'
p70
g7
(g8
(I0
tp71
g10
tp72
Rp73
(I1
(I3
tp74
g14
(S'f8'
p75
I0
I1
tp76
Rp77
(I3
S'<'
p78
NNNI-1
I-1
I0
tp79
bI00
S"fZ\xda\xb7\x01\xd1'@\xc3N\x12\xc7\xbe{K@\x8a\xb01\xe3/\x8d:@"
p80
tp81
bsS'secnames'
p82
S'Cell[0].axon[5]'
p83
sI3
I15
tp84
a(F2.4503019891667805
S'Cell[6].dend[14] syn_ = new AmpaNmda(0.5)'
p85
I6
(dp86
g67
F0.5
sg68
F2.0
sg69
I38
sg70
g7
(g8
(I0
tp87
g10
tp88
Rp89
(I1
(I3
tp90
g77
I00
S'\xb49\xbb\x0fR\x8dH@ \xf2T\xe9\xa8\x00\xf9?\x00\x00\x00\x80\xebQ\xe8\xbf'
p91
tp92
bsg82
S'Cell[7].axon[0]'
p93
sI38
I35
tp94
a(F1.809684235300638
S'Cell[8].dend[22] syn_ = new AmpaNmda(0.166666666667)'
p95
I8
(dp96
g67
F0.9285714285714284
sg68
F2.0
sg69
I48
sg70
g7
(g8
(I0
tp97
g10
tp98
Rp99
(I1
(I3
tp100
g77
I00
S'`\x9c\xdf\x11p_I@\x1aEmp/;/@\x14\x18\xc4\xca\x04\xd1$\xc0'
p101
tp102
bsg82
S'Cell[9].axon[31]'
p103
sI48
I45
tp104
a(F1.2687530831716372
S'Cell[8].dend[23] syn_ = new AmpaNmda(0.166666666667)'
p105
I8
g96
I48
I45
tp106
a(F2.0791982369706137
S'Cell[5].dend[2] syn_ = new AmpaNmda(0.5)'
p107
I5
(dp108
S'seg'
p109
F0.30000000000000004
sS'hostfrom'
p110
F3.0
sS'gid'
p111
I44
sS'coords'
p112
g7
(g8
(I0
tp113
g10
tp114
Rp115
(I1
(I3
tp116
g14
(S'f8'
p117
I0
I1
tp118
Rp119
(I3
S'<'
p120
NNNI-1
I-1
I0
tp121
bI00
S'\xa6\xd6\x97\xbe\x97\xf4G\xc0\xf0\x82\xea\xa8\xfdb[\xc0\xe47{7\xdf\xd7%\xc0'
p122
tp123
bsS'secnames'
p124
S'Cell[8].axon[35]'
p125
sI44
I30
tp126
a(F1.8991758296922077
S'Cell[0].apic[162] syn_ = new ExpSid(0.357142857143)'
p127
I0
(dp128
g109
F0.5
sg110
F3.0
sg111
I49
sg112
g7
(g8
(I0
tp129
g10
tp130
Rp131
(I1
(I3
tp132
g119
I00
S']\x9d\xce||q\\\xc0\xad\xf7\xe0\xb2*\xac`\xc0\x00\x00\x00`f\xe6*\xc0'
p133
tp134
bsg124
S'Cell[9].axon[4]'
p135
sI49
I5
tp136
a(F2.4770744739548123
S'Cell[1].dend[27] syn_ = new ExpSid(0.166666666667)'
p137
I1
(dp138
S'seg'
p139
F0.16666666666666666
sS'hostfrom'
p140
F4.0
sS'gid'
p141
I35
sS'coords'
p142
g7
(g8
(I0
tp143
g10
tp144
Rp145
(I1
(I3
tp146
g14
(S'f8'
p147
I0
I1
tp148
Rp149
(I3
S'<'
p150
NNNI-1
I-1
I0
tp151
bI00
S' \x9b\x8cwv+G@R\xd3>0E\x0c\x1e\xc0\x00\x00\x00\x00\x00\x00\x10@'
p152
tp153
bsS'secnames'
p154
S'Cell[6].axon[0]'
p155
sI35
I10
tp156
a(F1.025232692759267
S'Cell[8].dend[6] syn_ = new ExpSid(0.3)'
p157
I8
(dp158
g139
F0.30000000000000004
sg140
F4.0
sg141
I5
sg142
g7
(g8
(I0
tp159
g10
tp160
Rp161
(I1
(I3
tp162
g149
I00
S"iq'\xa4\xf5\x99E\xc0u6\x85\xbb\xd4\x9fQ@\xa6\x9eLK\xf7\xb31@"
p163
tp164
bsg154
S'Cell[0].axon[11]'
p165
sI5
I45
tp166
a(F1.7543964701167187
S'Cell[6].apic[24] syn_ = new ExpSid(0.5)'
p167
I6
(dp168
g139
F0.40909090909090906
sg140
F4.0
sg141
I5
sg142
g7
(g8
(I0
tp169
g10
tp170
Rp171
(I1
(I3
tp172
g149
I00
S'\xe4x\xad\x11\x8fi<@Z\x11L{U\xe3E@\x87V\x11\x91h\xf8D@'
p173
tp174
bsg154
S'Cell[0].axon[16]'
p175
sI5
I35
tp176
a(F2.2495834387930422
S'Cell[2].dend[43] syn_ = new ExpSid(0.5)'
p177
I2
(dp178
g139
F0.5
sg140
F4.0
sg141
I5
sg142
g7
(g8
(I0
tp179
g10
tp180
Rp181
(I1
(I3
tp182
g149
I00
S'\xe2\xc1\xbdd*w?@?\x9b\xadFT\xeb\xe8\xbf<\x1d\xf2\xfb\xeeI<@'
p183
tp184
bsg154
S'Cell[0].axon[97]'
p185
sI5
I15
tp186
a(F2.4206691852176876
S'Cell[6].dend[10] syn_ = new AmpaNmda(0.5)'
p187
I6
(dp188
g139
F0.5
sg140
F4.0
sg141
I10
sg142
g7
(g8
(I0
tp189
g10
tp190
Rp191
(I1
(I3
tp192
g149
I00
S"\x00\x00\x00 \x85\xab2@\x00\x00\x00\x80\xc2\xf5'@\x00\x00\x00 \\\x8f\x1d@"
p193
tp194
bsg154
S'Cell[1].soma[0]'
p195
sI10
I35
tp196
a(F2.3012742926454517
S'Cell[4].apic[13] syn_ = new AmpaNmda(0.9)'
p197
I4
(dp198
g139
F0.8999999999999999
sg140
F4.0
sg141
I10
sg142
g7
(g8
(I0
tp199
g10
tp200
Rp201
(I1
(I3
tp202
g149
I00
S'r.\x1f$\x85\xde\x1f\xc0A\xf1\x9eps\nS@(\x1d\x1c\xb1\xc3,\x01\xc0'
p203
tp204
bsg154
S'Cell[1].axon[15]'
p205
sI10
I25
tp206
a(F0.9166054123307247
S'Cell[2].apic[10] syn_ = new AmpaNmda(0.833333333333)'
p207
I2
(dp208
g139
F0.7
sg140
F4.0
sg141
I10
sg142
g7
(g8
(I0
tp209
g10
tp210
Rp211
(I1
(I3
tp212
g149
I00
S'\xded\x0cf<;j@\xf2\x98\xbbZ\xa7@>@{B?{\x1a\\4@'
p213
tp214
bsg154
S'Cell[1].axon[36]'
p215
sI10
I15
tp216
a(F2.3698818467553777
S'Cell[1].dend[7] syn_ = new ExpSid(0.9)'
p217
I1
(dp218
g139
F0.9285714285714284
sg140
F4.0
sg141
I15
sg142
g7
(g8
(I0
tp219
g10
tp220
Rp221
(I1
(I3
tp222
g149
I00
S"^\xc7\xf6\x88\xfetO\xc0\xecY\xf4\xd39\x9fK\xc04\xa5\xf0\xfcO\x19'@"
p223
tp224
bsg154
S'Cell[2].axon[3]'
p225
sI15
I10
tp226
a.