(lp0
(F0.9051924640499631
S'Cell[5].dend[0] syn_ = new FastInhib(0.5)'
p1
I5
(dp2
S'seg'
p3
F0.8333333333333333
sS'hostfrom'
p4
F0.0
sS'gid'
p5
I0
sS'coords'
p6
cnumpy.core.multiarray
_reconstruct
p7
(cnumpy
ndarray
p8
(I0
tp9
S'b'
p10
tp11
Rp12
(I1
(I3
tp13
cnumpy
dtype
p14
(S'f8'
p15
I0
I1
tp16
Rp17
(I3
S'<'
p18
NNNI-1
I-1
I0
tp19
bI00
S'\x0e\x94\x9f\xf8Y\xb5A\xc0\x00\xfd\x17z\xeeo:\xc0.o\xca,~\xef\xbe?'
p20
tp21
bsS'secnames'
p22
S'Cell[0].axon[25]'
p23
sI0
I21
tp24
a(F1.4594044232114394
S'Cell[9].dend[1] syn_ = new AmpaNmda(0.166666666667)'
p25
I9
(dp26
g3
F0.8333333333333333
sg4
F0.0
sg5
I0
sg6
g7
(g8
(I0
tp27
g10
tp28
Rp29
(I1
(I3
tp30
g17
I00
S'\xc6`\x9e9\x01\xa7D\xc0Eg\x8fS7sN\xc0Av\x16I\x15\x042@'
p31
tp32
bsg22
S'Cell[0].axon[33]'
p33
sI0
I37
tp34
a(F1.793190913424218
S'Cell[3].dend[12] syn_ = new AmpaNmda(0.5)'
p35
I3
(dp36
g3
F0.5
sg4
F0.0
sg5
I0
sg6
g7
(g8
(I0
tp37
g10
tp38
Rp39
(I1
(I3
tp40
g17
I00
S'(\xe5Gs9\x94E@h\xe6\xd9h\xd9\x07B\xc0dC\xd0c\xaf\x8e%\xc0'
p41
tp42
bsg22
S'Cell[0].axon[78]'
p43
sI0
I13
tp44
a(F1.4927644158364728
S'Cell[0].dend[15] syn_ = new AmpaNmda(0.166666666667)'
p45
I0
(dp46
g3
F0.5
sg4
F0.0
sg5
I0
sg6
g7
(g8
(I0
tp47
g10
tp48
Rp49
(I1
(I3
tp50
g17
I00
S'H\x05[,0\x1b4\xc0\xf1v\xa2\xe6\xdb\xe98@\xb8r\xebde\xd0\xff\xbf'
p51
tp52
bsg22
S'Cell[0].axon[198]'
p53
sI0
I1
tp54
a(F1.4224596053758876
S'Cell[9].apic[19] syn_ = new AmpaNmda(0.5)'
p55
I9
(dp56
g3
F0.5
sg4
F0.0
sg5
I0
sg6
g7
(g8
(I0
tp57
g10
tp58
Rp59
(I1
(I3
tp60
g17
I00
S'\xbd;P\tbIY@\x12\x0f{W\xd4\xd7X@M:\xa3# 3H\xc0'
p61
tp62
bsg22
S'Cell[0].axon[285]'
p63
sI0
I37
tp64
a(F0.9410108810470784
S'Cell[9].apic[21] syn_ = new AmpaNmda(0.833333333333)'
p65
I9
(dp66
g3
F0.5
sg4
F0.0
sg5
I0
sg6
g7
(g8
(I0
tp67
g10
tp68
Rp69
(I1
(I3
tp70
g17
I00
S'b\x17zb\xd2\x1c+@X\x1e\xb7\x89c\x1e^@\xa4\x8e\xc0W\xfd\xc2\x12@'
p71
tp72
bsg22
S'Cell[0].axon[355]'
p73
sI0
I37
tp74
a(F2.0888909145421963
S'Cell[3].apic[23] syn_ = new AmpaNmda(0.1)'
p75
I3
(dp76
g3
F0.62
sg4
F0.0
sg5
I8
sg6
g7
(g8
(I0
tp77
g10
tp78
Rp79
(I1
(I3
tp80
g17
I00
S'&\xae/]|PQ@\xa5\xd6\x0c\xc7\xdfCj@tj\xca\xe1\xd5NV\xc0'
p81
tp82
bsg22
S'Cell[2].axon[43]'
p83
sI8
I13
tp84
a(F1.6932498049674285
S'Cell[6].apic[16] syn_ = new AmpaNmda(0.833333333333)'
p85
I6
(dp86
g3
F0.5
sg4
F0.0
sg5
I12
sg6
g7
(g8
(I0
tp87
g10
tp88
Rp89
(I1
(I3
tp90
g17
I00
S'!3`\xe1\xfd%^@\xa8\xa9\x070\xd7*[@\x00\x00\x00\xc0\xcc\xacF\xc0'
p91
tp92
bsg22
S'Cell[3].axon[104]'
p93
sI12
I25
tp94
a(F2.243828881464706
S'Cell[9].apic[19] syn_ = new AmpaNmda(0.5)'
p95
I9
(dp96
g3
F0.5
sg4
F0.0
sg5
I12
sg6
g7
(g8
(I0
tp97
g10
tp98
Rp99
(I1
(I3
tp100
g17
I00
S'x\x8c\x8c\xefv\xacX@\x89\x9f@\xbd\x86\xddX@2T\x1f^\x14-H\xc0'
p101
tp102
bsg22
S'Cell[3].axon[132]'
p103
sI12
I37
tp104
a(F2.229744713976076
S'Cell[9].apic[19] syn_ = new AmpaNmda(0.5)'
p105
I9
(dp106
g3
F0.5
sg4
F0.0
sg5
I12
sg6
g7
(g8
(I0
tp107
g10
tp108
Rp109
(I1
(I3
tp110
g17
I00
S'<A\x00\xdf\xbb$Y@\xdacv\xb2%/Y@M\xee\xd9\xa0x0H\xc0'
p111
tp112
bsg22
S'Cell[3].axon[133]'
p113
sI12
I37
tp114
a(F1.8862512425583409
S'Cell[9].apic[12] syn_ = new AmpaNmda(0.5)'
p115
I9
(dp116
g3
F0.5
sg4
F0.0
sg5
I12
sg6
g7
(g8
(I0
tp117
g10
tp118
Rp119
(I1
(I3
tp120
g17
I00
S'\x80\x99\xdd\x18d\xe6\x1e\xc0\xb7\x17\xe88Q\xc2^@\x10\x94\xc6`\xdc\x8c\x12\xc0'
p121
tp122
bsg22
S'Cell[3].axon[229]'
p123
sI12
I37
tp124
a(F2.248834069940655
S'Cell[3].apic[32] syn_ = new AmpaNmda(0.833333333333)'
p125
I3
(dp126
g3
F0.30000000000000004
sg4
F0.0
sg5
I12
sg6
g7
(g8
(I0
tp127
g10
tp128
Rp129
(I1
(I3
tp130
g17
I00
S'\xd2X\xff\x11\xc5\\B@[\xa6=|\x9c\x82P@\x15\xd4\xbf\xd3\xc0i\x1c\xc0'
p131
tp132
bsg22
S'Cell[3].axon[482]'
p133
sI12
I13
tp134
a(F2.015527479378596
S'Cell[7].dend[7] syn_ = new AmpaNmda(0.5)'
p135
I7
(dp136
g3
F0.16666666666666666
sg4
F0.0
sg5
I24
sg6
g7
(g8
(I0
tp137
g10
tp138
Rp139
(I1
(I3
tp140
g17
I00
S'\x95\xfd1\x97/-!\xc0z\x89w6\x94YI\xc0\xab\x8f\xe3\x87\xee\xe30\xc0'
p141
tp142
bsg22
S'Cell[6].axon[135]'
p143
sI24
I29
tp144
a(F2.352743458798256
S'Cell[7].apic[19] syn_ = new AmpaNmda(0.5)'
p145
I7
(dp146
g3
F0.07142857142857142
sg4
F0.0
sg5
I24
sg6
g7
(g8
(I0
tp147
g10
tp148
Rp149
(I1
(I3
tp150
g17
I00
S'h\xe5\t)>\xcf4\xc0\x84\x9e<]o\x19&@\xd7\xa8\xeb\x0b;\xe57\xc0'
p151
tp152
bsg22
S'Cell[6].axon[160]'
p153
sI24
I29
tp154
a(F1.2948423673442175
S'Cell[6].apic[4] syn_ = new AmpaNmda(0.5)'
p155
I6
(dp156
g3
F0.5
sg4
F0.0
sg5
I24
sg6
g7
(g8
(I0
tp157
g10
tp158
Rp159
(I1
(I3
tp160
g17
I00
S'<\x93\xd6\xf8\x82_J@\x9cW5\xc0a5b@\x00\x00\x00\xc0\xf5("\xc0'
p161
tp162
bsg22
S'Cell[6].axon[334]'
p163
sI24
I25
tp164
a(F2.3626756877653423
S'Cell[9].dend[35] syn_ = new AmpaNmda(0.166666666667)'
p165
I9
(dp166
g3
F0.5
sg4
F0.0
sg5
I24
sg6
g7
(g8
(I0
tp167
g10
tp168
Rp169
(I1
(I3
tp170
g17
I00
S'\xa7d\x00\x97\x7f|A@V\xf4\xbbug\xb6\xf3?\x00\x00\x00\x00\xd7#&\xc0'
p171
tp172
bsg22
S'Cell[6].axon[370]'
p173
sI24
I37
tp174
a(F2.28401157783371
S'Cell[2].dend[0] syn_ = new FastInhib(0.0714285714286)'
p175
I2
(dp176
g3
F0.5
sg4
F0.0
sg5
I24
sg6
g7
(g8
(I0
tp177
g10
tp178
Rp179
(I1
(I3
tp180
g17
I00
S'\xe3\x18\x7fp\xa6\x901@\xd70XH\xbf\x1a;@\x00\x00\x00@33\x05\xc0'
p181
tp182
bsg22
S'Cell[6].axon[403]'
p183
sI24
I9
tp184
a(F2.067900209280163
S'Cell[9].dend[0] syn_ = new AmpaNmda(0.5)'
p185
I9
(dp186
g3
F0.8333333333333333
sg4
F0.0
sg5
I24
sg6
g7
(g8
(I0
tp187
g10
tp188
Rp189
(I1
(I3
tp190
g17
I00
S'.\xc3\xed\xa4\xb7a7\xc0\xc4@O(\\).\xc0\xe4\x87\xad\\uL\xdb?'
p191
tp192
bsg22
S'Cell[6].axon[444]'
p193
sI24
I37
tp194
a(F1.2875839903954192
S'Cell[0].dend[15] syn_ = new AmpaNmda(0.5)'
p195
I0
(dp196
g3
F0.5
sg4
F0.0
sg5
I36
sg6
g7
(g8
(I0
tp197
g10
tp198
Rp199
(I1
(I3
tp200
g17
I00
S'\x00\x00\x00\xf8\xff\xffB\xc0\x00\x00\x00 \\\x0fA@\x00\x00\x00\xc0\xcc\xcc\n\xc0'
p201
tp202
bsg22
S'Cell[9].soma[0]'
p203
sI36
I1
tp204
a(F2.3450079959543118
S'Cell[4].dend[8] syn_ = new AmpaNmda(0.5)'
p205
I4
(dp206
g3
F0.07142857142857142
sg4
F0.0
sg5
I36
sg6
g7
(g8
(I0
tp207
g10
tp208
Rp209
(I1
(I3
tp210
g17
I00
S'\x1d\xcd9~\x91\xb4`\xc0\xd2K\x15\x84YjY@\xee\xbf\x8ah&\xca\x0f@'
p211
tp212
bsg22
S'Cell[9].axon[6]'
p213
sI36
I17
tp214
a(F1.9175227033987634
S'Cell[3].apic[31] syn_ = new AmpaNmda(0.5)'
p215
I3
(dp216
g3
F0.8999999999999999
sg4
F0.0
sg5
I36
sg6
g7
(g8
(I0
tp217
g10
tp218
Rp219
(I1
(I3
tp220
g17
I00
S'rr)\x9cS\xccO@\x02E\xadU\x17\x0f>@\x00\x00\x00 \\\x0f/@'
p221
tp222
bsg22
S'Cell[9].axon[179]'
p223
sI36
I13
tp224
a(F2.200714281251056
S'Cell[9].apic[31] syn_ = new AmpaNmda(0.9)'
p225
I9
(dp226
g3
F0.5
sg4
F0.0
sg5
I36
sg6
g7
(g8
(I0
tp227
g10
tp228
Rp229
(I1
(I3
tp230
g17
I00
S'\x00\x00\x00@\n\xff[\xc0\x00\x00\x00\xc0\xf5\xfce@\x00\x00\x00\xc0\xcc\xcc0@'
p231
tp232
bsg22
S'Cell[9].axon[182]'
p233
sI36
I37
tp234
a(F2.15494342414578
S'Cell[4].dend[3] syn_ = new AmpaNmda(0.5)'
p235
I4
(dp236
g3
F0.8333333333333333
sg4
F0.0
sg5
I36
sg6
g7
(g8
(I0
tp237
g10
tp238
Rp239
(I1
(I3
tp240
g17
I00
S'\x94\x1f\x8e\x91\xdf\'_\xc0"\x16\xf47\xe0\xefZ@\xf1q+\xe9a%8@'
p241
tp242
bsg22
S'Cell[9].axon[184]'
p243
sI36
I17
tp244
a(F1.928533600196915
S'Cell[0].dend[19] syn_ = new AmpaNmda(0.5)'
p245
I0
(dp246
g3
F0.6428571428571428
sg4
F0.0
sg5
I36
sg6
g7
(g8
(I0
tp247
g10
tp248
Rp249
(I1
(I3
tp250
g17
I00
S'\x06\xde3\t\xa3\xeaT@0:*D\xfbS\xb9\xbf\xe4\x07\x93\x95\x8de @'
p251
tp252
bsg22
S'Cell[9].axon[250]'
p253
sI36
I1
tp254
a(F2.304565922080635
S'Cell[6].dend[8] syn_ = new ExpSid(0.5)'
p255
I6
(dp256
S'seg'
p257
F0.5
sS'hostfrom'
p258
F1.0
sS'gid'
p259
I33
sS'coords'
p260
g7
(g8
(I0
tp261
g10
tp262
Rp263
(I1
(I3
tp264
g14
(S'f8'
p265
I0
I1
tp266
Rp267
(I3
S'<'
p268
NNNI-1
I-1
I0
tp269
bI00
S'\xd3\x06\xd9\t\xf1JB@\xea\x1a\x94\x98\xfe\x0b\xdb?\xb2}\xa4\x88Y]%@'
p270
tp271
bsS'secnames'
p272
S'Cell[8].axon[5]'
p273
sI33
I25
tp274
a(F1.8184337105033601
S'Cell[6].apic[2] syn_ = new ExpSid(0.5)'
p275
I6
(dp276
g257
F0.7
sg258
F1.0
sg259
I33
sg260
g7
(g8
(I0
tp277
g10
tp278
Rp279
(I1
(I3
tp280
g267
I00
S'\xf9-\x8c.k"N@&\x0c\x94V\xef\xb0Q@\xbe\xf7\x13\x12\xaem(\xc0'
p281
tp282
bsg272
S'Cell[8].axon[84]'
p283
sI33
I25
tp284
a(F2.486289265742762
S'Cell[4].dend[8] syn_ = new ExpSid(0.833333333333)'
p285
I4
(dp286
g257
F0.3571428571428571
sg258
F1.0
sg259
I33
sg260
g7
(g8
(I0
tp287
g10
tp288
Rp289
(I1
(I3
tp290
g267
I00
S'\xd5\x80\xcf\x1e\x0b\xedb\xc0z\xe2p%\xde\xab[@\x86\x06\xdeH\x1b\xc5\xec?'
p291
tp292
bsg272
S'Cell[8].axon[164]'
p293
sI33
I17
tp294
a(F1.0661372581995106
S'Cell[5].dend[0] syn_ = new FastInhib(0.5)'
p295
I5
(dp296
g257
F0.7857142857142856
sg258
F1.0
sg259
I33
sg260
g7
(g8
(I0
tp297
g10
tp298
Rp299
(I1
(I3
tp300
g267
I00
S'K\x07\xa9B\xf6\x9aA\xc0\xa8^\\\xce\x94x:\xc0L\x04&\xf1*\xf9\xf8\xbf'
p301
tp302
bsg272
S'Cell[8].axon[207]'
p303
sI33
I21
tp304
a(F1.5591517454518342
S'Cell[3].apic[19] syn_ = new ExpSid(0.166666666667)'
p305
I3
(dp306
g257
F0.30000000000000004
sg258
F1.0
sg259
I33
sg260
g7
(g8
(I0
tp307
g10
tp308
Rp309
(I1
(I3
tp310
g267
I00
S'\xd0\xfc\x8b,rM9@\x9e\xc3\xb9\x83\xc6\xe5j@\x1d\x84:\xd0\x19W]\xc0'
p311
tp312
bsg272
S'Cell[8].axon[223]'
p313
sI33
I13
tp314
a(F1.5497923460174714
S'Cell[6].dend[17] syn_ = new ExpSid(0.1)'
p315
I6
(dp316
g257
F0.5
sg258
F1.0
sg259
I9
sg260
g7
(g8
(I0
tp317
g10
tp318
Rp319
(I1
(I3
tp320
g267
I00
S'\xcf\xc5a.\xfby7\xc03F\xeaY\x96fK\xc0j\x00Z\xf1\x9auC\xc0'
p321
tp322
bsg272
S'Cell[2].axon[23]'
p323
sI9
I25
tp324
a(F2.480326358491433
S'Cell[5].dend[6] syn_ = new FastInhib(0.7)'
p325
I5
(dp326
g257
F0.5
sg258
F1.0
sg259
I9
sg260
g7
(g8
(I0
tp327
g10
tp328
Rp329
(I1
(I3
tp330
g267
I00
S'\x00\x00\x00\x00\x9a\xc9\\\xc0Yr\xe6jRJ<\xc0:\xac(\xa0\xb7\xfdF\xc0'
p331
tp332
bsg272
S'Cell[2].axon[45]'
p333
sI9
I21
tp334
a(F2.158939956440965
S'Cell[4].apic[3] syn_ = new ExpSid(0.166666666667)'
p335
I4
(dp336
g257
F0.49999999999999994
sg258
F1.0
sg259
I9
sg260
g7
(g8
(I0
tp337
g10
tp338
Rp339
(I1
(I3
tp340
g267
I00
S'\xb8.\x0e\x14_^P\xc0\xc0\xedD"\xbbh]@\xb3\xa3\xfew\x95\xc7\x1c\xc0'
p341
tp342
bsg272
S'Cell[2].axon[60]'
p343
sI9
I17
tp344
a(F1.8608185584112529
S'Cell[1].dend[3] syn_ = new ExpSid(0.5)'
p345
I1
(dp346
g257
F0.5
sg258
F1.0
sg259
I9
sg260
g7
(g8
(I0
tp347
g10
tp348
Rp349
(I1
(I3
tp350
g267
I00
S'2\x8aej\xd5\xe4G@F\xef\x04&9"6\xc0@\xf5\xcf#\x84\x12A\xc0'
p351
tp352
bsg272
S'Cell[2].axon[165]'
p353
sI9
I5
tp354
a(F1.908567532432368
S'Cell[9].dend[51] syn_ = new ExpSid(0.5)'
p355
I9
(dp356
g257
F0.16666666666666666
sg258
F1.0
sg259
I9
sg260
g7
(g8
(I0
tp357
g10
tp358
Rp359
(I1
(I3
tp360
g267
I00
S'\xcd\xba@ti(K@d\xb39X\xd5\xda(@\x10\xfe:\xdc\x90d5\xc0'
p361
tp362
bsg272
S'Cell[2].axon[173]'
p363
sI9
I37
tp364
a(F2.1035202418185217
S'Cell[0].apic[16] syn_ = new ExpSid(0.5)'
p365
I0
(dp366
g257
F0.1
sg258
F1.0
sg259
I9
sg260
g7
(g8
(I0
tp367
g10
tp368
Rp369
(I1
(I3
tp370
g267
I00
S'\xd6\xce\xd2Q%gP@\xac\xef\xaa\xfb\n\\C@\xbc\xf0\xa2x7n%\xc0'
p371
tp372
bsg272
S'Cell[2].axon[180]'
p373
sI9
I1
tp374
a(F0.8921292022923429
S'Cell[0].apic[17] syn_ = new ExpSid(0.9)'
p375
I0
(dp376
g257
F0.5
sg258
F1.0
sg259
I9
sg260
g7
(g8
(I0
tp377
g10
tp378
Rp379
(I1
(I3
tp380
g267
I00
S'\x85\x8d1\x8f\xceOD\xc0\xaa\x8f\xc0\xbd\xdfNV@4\xba\x876\x92\xf3I\xc0'
p381
tp382
bsg272
S'Cell[2].axon[218]'
p383
sI9
I1
tp384
a(F0.7447393269171095
S'Cell[9].dend[22] syn_ = new ExpSid(0.166666666667)'
p385
I9
(dp386
g257
F0.8333333333333333
sg258
F1.0
sg259
I9
sg260
g7
(g8
(I0
tp387
g10
tp388
Rp389
(I1
(I3
tp390
g267
I00
S'\x0ee\xbc+\xa7@Q\xc0*\xa6\x8a\x9e\x9d\x9f\x01\xc04\x9e2\x07\xa77D\xc0'
p391
tp392
bsg272
S'Cell[2].axon[230]'
p393
sI9
I37
tp394
a(F1.5319297269111427
S'Cell[9].apic[1] syn_ = new ExpSid(0.166666666667)'
p395
I9
(dp396
g257
F0.30000000000000004
sg258
F1.0
sg259
I9
sg260
g7
(g8
(I0
tp397
g10
tp398
Rp399
(I1
(I3
tp400
g267
I00
S'\xf0\xba\xb7\xa1C>3\xc0\xd7\xbc\x8d\n\xa7\xddM@\xb8\xb2\\\t\xfa80\xc0'
p401
tp402
bsg272
S'Cell[2].axon[252]'
p403
sI9
I37
tp404
a(F1.7642958152957686
S'Cell[6].dend[3] syn_ = new ExpSid(0.5)'
p405
I6
(dp406
g257
F0.30000000000000004
sg258
F1.0
sg259
I9
sg260
g7
(g8
(I0
tp407
g10
tp408
Rp409
(I1
(I3
tp410
g267
I00
S"J\x15M>S\xbe\x05\xc0\xd6}TW\xedL1@\xe6\x02\x1f\x14\x9d3'@"
p411
tp412
bsg272
S'Cell[2].axon[285]'
p413
sI9
I25
tp414
a(F2.4437232846737156
S'Cell[1].apic[12] syn_ = new ExpSid(0.5)'
p415
I1
(dp416
g257
F0.8333333333333333
sg258
F1.0
sg259
I9
sg260
g7
(g8
(I0
tp417
g10
tp418
Rp419
(I1
(I3
tp420
g267
I00
S'\xbeB\xd1\x89\x1d,E@\xc0\x17\xdd\xfa\x83QY\xc0qo\x98$i{&@'
p421
tp422
bsg272
S'Cell[2].axon[337]'
p423
sI9
I5
tp424
a(F1.7812325311000115
S'Cell[3].dend[24] syn_ = new ExpSid(0.5)'
p425
I3
(dp426
g257
F0.30000000000000004
sg258
F1.0
sg259
I9
sg260
g7
(g8
(I0
tp427
g10
tp428
Rp429
(I1
(I3
tp430
g267
I00
S'\xf0d\r:\xd1\n@@>\x1a\x0c\xdc\xd3\xccP\xc0:\xe3\xb3H=}&@'
p431
tp432
bsg272
S'Cell[2].axon[340]'
p433
sI9
I13
tp434
a(F1.098593157426003
S'Cell[9].dend[37] syn_ = new ExpSid(0.833333333333)'
p435
I9
(dp436
g257
F0.5
sg258
F1.0
sg259
I13
sg260
g7
(g8
(I0
tp437
g10
tp438
Rp439
(I1
(I3
tp440
g267
I00
S'\x00\x00\x00`\x8f\x02M@\x00\x00\x00 \xaeG8\xc0\x00\x00\x00`\x8f\xc2\x18\xc0'
p441
tp442
bsg272
S'Cell[3].soma[0]'
p443
sI13
I37
tp444
a(F0.9255992052961948
S'Cell[7].dend[4] syn_ = new ExpSid(0.166666666667)'
p445
I7
(dp446
g257
F0.16666666666666666
sg258
F1.0
sg259
I21
sg260
g7
(g8
(I0
tp447
g10
tp448
Rp449
(I1
(I3
tp450
g267
I00
S'\xb6\x06&A\xb2\xc9F\xc0\xe8f\xfa\xdc\x04*A\xc0\xe3j\x8a\x1d\xdeM\x17\xc0'
p451
tp452
bsg272
S'Cell[5].axon[85]'
p453
sI21
I29
tp454
a(F1.3152185954023579
S'Cell[3].dend[8] syn_ = new ExpSid(0.166666666667)'
p455
I3
(dp456
g257
F0.5
sg258
F1.0
sg259
I21
sg260
g7
(g8
(I0
tp457
g10
tp458
Rp459
(I1
(I3
tp460
g267
I00
S"|\xbe\xc7F+oD@\xd2'\x9d\x9a\xff\xf9N\xc0~\xf2\x1a\x94\xf4[U\xc0"
p461
tp462
bsg272
S'Cell[5].axon[87]'
p463
sI21
I13
tp464
a(F1.7260491652181442
S'Cell[2].dend[28] syn_ = new FastInhib(0.1)'
p465
I2
(dp466
g257
F0.8333333333333333
sg258
F1.0
sg259
I21
sg260
g7
(g8
(I0
tp467
g10
tp468
Rp469
(I1
(I3
tp470
g267
I00
S'6\x87z\\j\xab-\xc0&\xc0\x89\xbcz\xf6(\xc0@\xfd\xb2\xb0I\x14,\xc0'
p471
tp472
bsg272
S'Cell[5].axon[116]'
p473
sI21
I9
tp474
a(F2.3562510301454473
S'Cell[7].dend[6] syn_ = new ExpSid(0.5)'
p475
I7
(dp476
g257
F0.5
sg258
F1.0
sg259
I37
sg260
g7
(g8
(I0
tp477
g10
tp478
Rp479
(I1
(I3
tp480
g267
I00
S'\xef\xc3S\xc3\xfa\xbaX\xc0\xaes\x06\xd5\x16\x05!@\x86\xf7m#@U2\xc0'
p481
tp482
bsg272
S'Cell[9].axon[9]'
p483
sI37
I29
tp484
a(F1.6523676828213782
S'Cell[5].dend[2] syn_ = new FastInhib(0.833333333333)'
p485
I5
(dp486
S'seg'
p487
F0.5
sS'hostfrom'
p488
F2.0
sS'gid'
p489
I2
sS'coords'
p490
g7
(g8
(I0
tp491
g10
tp492
Rp493
(I1
(I3
tp494
g14
(S'f8'
p495
I0
I1
tp496
Rp497
(I3
S'<'
p498
NNNI-1
I-1
I0
tp499
bI00
S'\x99\x1c#\xa7~.S\xc0F\x85\x00\xe5J[S\xc0:#\x0b\xbe\xfa\xe0$@'
p500
tp501
bsS'secnames'
p502
S'Cell[0].axon[1]'
p503
sI2
I21
tp504
a(F1.5889241507559098
S'Cell[7].apic[33] syn_ = new AmpaNmda(0.5)'
p505
I7
(dp506
g487
F0.16666666666666666
sg488
F2.0
sg489
I6
sg490
g7
(g8
(I0
tp507
g10
tp508
Rp509
(I1
(I3
tp510
g497
I00
S'.;\x15\xfaw\xc1\x17@Rv\xfe]W\xd5d@\xf8)\x9d|\xfe\x1a8@'
p511
tp512
bsg502
S'Cell[1].axon[217]'
p513
sI6
I29
tp514
a(F2.4418753532013837
S'Cell[7].apic[26] syn_ = new AmpaNmda(0.5)'
p515
I7
(dp516
g487
F0.49999999999999994
sg488
F2.0
sg489
I6
sg490
g7
(g8
(I0
tp517
g10
tp518
Rp519
(I1
(I3
tp520
g497
I00
S"*\x95}FIv3\xc0\xfc\x81\x0emE'I@JU\xc5\xdc\x85$%\xc0"
p521
tp522
bsg502
S'Cell[1].axon[229]'
p523
sI6
I29
tp524
a(F2.3012742926454517
S'Cell[6].apic[13] syn_ = new AmpaNmda(0.9)'
p525
I6
(dp526
g487
F0.8999999999999999
sg488
F2.0
sg489
I10
sg490
g7
(g8
(I0
tp527
g10
tp528
Rp529
(I1
(I3
tp530
g497
I00
S'r.\x1f$\x85\xde\x1f\xc0A\xf1\x9eps\nS@(\x1d\x1c\xb1\xc3,\x01\xc0'
p531
tp532
bsg502
S'Cell[2].axon[15]'
p533
sI10
I25
tp534
a(F2.4805614675814187
S'Cell[7].apic[15] syn_ = new AmpaNmda(0.5)'
p535
I7
(dp536
g487
F0.5
sg488
F2.0
sg489
I14
sg490
g7
(g8
(I0
tp537
g10
tp538
Rp539
(I1
(I3
tp540
g497
I00
S'\x00\x00\x00P\xe1z&@\x00\x00\x00\xc0\x1e\x851@\x00\x00\x00`\x8fB&@'
p541
tp542
bsg502
S'Cell[3].soma[0]'
p543
sI14
I29
tp544
a(F1.4156569528164935
S'Cell[8].dend[18] syn_ = new FastInhib(0.5)'
p545
I8
(dp546
g487
F0.5
sg488
F2.0
sg489
I18
sg490
g7
(g8
(I0
tp547
g10
tp548
Rp549
(I1
(I3
tp550
g497
I00
S'\x8cL\x0f#\xfaw.\xc0\xbbW\x0fh|M\n\xc0(\xd1\xa7G\xb8\x07\x1e\xc0'
p551
tp552
bsg502
S'Cell[4].axon[18]'
p553
sI18
I33
tp554
a(F1.3440755862656912
S'Cell[1].apic[172] syn_ = new AmpaNmda(0.5)'
p555
I1
(dp556
g487
F0.8333333333333333
sg488
F2.0
sg489
I18
sg490
g7
(g8
(I0
tp557
g10
tp558
Rp559
(I1
(I3
tp560
g497
I00
S'\xa6h"\x89\x9d.S\xc0\xf3ZS\xf8\xd3\xe0d\xc0o_I\x9e\xfd\x1eG\xc0'
p561
tp562
bsg502
S'Cell[4].axon[41]'
p563
sI18
I5
tp564
a(F2.113914553548905
S'Cell[3].apic[27] syn_ = new AmpaNmda(0.5)'
p565
I3
(dp566
g487
F0.5
sg488
F2.0
sg489
I18
sg490
g7
(g8
(I0
tp567
g10
tp568
Rp569
(I1
(I3
tp570
g497
I00
S'\xd5\xa1e\xce\xfd?I@d\xbc\x14\x8c\x16\xcf!@\x00\x00\x00\x80\x14\xae\x01@'
p571
tp572
bsg502
S'Cell[4].axon[70]'
p573
sI18
I13
tp574
a(F1.3581591856645507
S'Cell[0].dend[7] syn_ = new AmpaNmda(0.5)'
p575
I0
(dp576
g487
F0.5
sg488
F2.0
sg489
I18
sg490
g7
(g8
(I0
tp577
g10
tp578
Rp579
(I1
(I3
tp580
g497
I00
S'\xa6Hk\xc8\xef\x8d@@\x085vx\x86`\xf4\xbfH\xaf"=\xf7e\x05@'
p581
tp582
bsg502
S'Cell[4].axon[105]'
p583
sI18
I1
tp584
a(F2.0685543811240548
S'Cell[7].apic[15] syn_ = new AmpaNmda(0.833333333333)'
p585
I7
(dp586
g487
F0.8333333333333333
sg488
F2.0
sg489
I26
sg490
g7
(g8
(I0
tp587
g10
tp588
Rp589
(I1
(I3
tp590
g497
I00
S'|\xd42\xb6\xf9\x9b.@2T\xe8+7\x894@J@$T8\x9b,@'
p591
tp592
bsg502
S'Cell[6].axon[5]'
p593
sI26
I29
tp594
a(F1.7925463156767767
S'Cell[9].dend[0] syn_ = new AmpaNmda(0.166666666667)'
p595
I9
(dp596
g487
F0.16666666666666666
sg488
F2.0
sg489
I26
sg490
g7
(g8
(I0
tp597
g10
tp598
Rp599
(I1
(I3
tp600
g497
I00
S'\x96\xa8\x92\x93M\xd6/\xc0g\x8f0\x0b\n.\x14@\xe6\x80\x8fF\x80\xd7\x0e@'
p601
tp602
bsg502
S'Cell[6].axon[73]'
p603
sI26
I37
tp604
a(F1.2568266112925386
S'Cell[9].apic[67] syn_ = new AmpaNmda(0.833333333333)'
p605
I9
(dp606
g487
F0.1
sg488
F2.0
sg489
I30
sg490
g7
(g8
(I0
tp607
g10
tp608
Rp609
(I1
(I3
tp610
g497
I00
S"\x073\x94\xff\xa4^%@\xec\xe3\xde;\xcdUS@\xa7\xd0'\xb8\x08}(@"
p611
tp612
bsg502
S'Cell[7].axon[4]'
p613
sI30
I37
tp614
a(F2.4036448423247014
S'Cell[8].dend[0] syn_ = new FastInhib(0.5)'
p615
I8
(dp616
S'seg'
p617
F0.8333333333333333
sS'hostfrom'
p618
F3.0
sS'gid'
p619
I35
sS'coords'
p620
g7
(g8
(I0
tp621
g10
tp622
Rp623
(I1
(I3
tp624
g14
(S'f8'
p625
I0
I1
tp626
Rp627
(I3
S'<'
p628
NNNI-1
I-1
I0
tp629
bI00
S'\x0c\xf5{ejv*@\xa4LK\x9eH$H\xc0\xb0k\xae.\xea\x8d @'
p630
tp631
bsS'secnames'
p632
S'Cell[8].axon[1]'
p633
sI35
I33
tp634
a(F2.467002209289379
S'Cell[5].dend[29] syn_ = new FastInhib(0.5)'
p635
I5
(dp636
g617
F0.16666666666666666
sg618
F3.0
sg619
I35
sg620
g7
(g8
(I0
tp637
g10
tp638
Rp639
(I1
(I3
tp640
g627
I00
S'\xc6\xf4\xa3V\xd6\xf42\xc0f!\xf5\xfc\x12\xc7L\xc0\x0cTT\xfd8L#@'
p641
tp642
bsg632
S'Cell[8].axon[6]'
p643
sI35
I21
tp644
a(F2.2451867635452367
S'Cell[5].dend[6] syn_ = new FastInhib(0.7)'
p645
I5
(dp646
g617
F0.5
sg618
F3.0
sg619
I3
sg620
g7
(g8
(I0
tp647
g10
tp648
Rp649
(I1
(I3
tp650
g627
I00
S'\xfa7\x15^)R\\\xc0Fj\xd6f\x14\xda<\xc0\x00\x00\x00\xe0Q\x98F\xc0'
p651
tp652
bsg632
S'Cell[0].axon[127]'
p653
sI3
I21
tp654
a(F1.551636321775298
S'Cell[4].dend[16] syn_ = new ExpSid(0.3)'
p655
I4
(dp656
g617
F0.5
sg618
F3.0
sg619
I3
sg620
g7
(g8
(I0
tp657
g10
tp658
Rp659
(I1
(I3
tp660
g627
I00
S'\xc3\xd00\x07\x8f^T\xc0\x08\xaf4\xadM\x12<@\x84\xd0\xc2\x9f\xa1\xf18\xc0'
p661
tp662
bsg632
S'Cell[0].axon[199]'
p663
sI3
I17
tp664
a(F2.25211224110403
S'Cell[1].apic[105] syn_ = new ExpSid(0.0555555555556)'
p665
I1
(dp666
g617
F0.8333333333333333
sg618
F3.0
sg619
I3
sg620
g7
(g8
(I0
tp667
g10
tp668
Rp669
(I1
(I3
tp670
g627
I00
S'-t\x81\xc6\x1cJE\xc0\xa7Dj\xeb\n\xe7}\xc0\x00\x00\x00@33\x19\xc0'
p671
tp672
bsg632
S'Cell[0].axon[291]'
p673
sI3
I5
tp674
a(F1.5472123109647424
S'Cell[7].dend[21] syn_ = new ExpSid(0.166666666667)'
p675
I7
(dp676
g617
F0.16666666666666666
sg618
F3.0
sg619
I15
sg620
g7
(g8
(I0
tp677
g10
tp678
Rp679
(I1
(I3
tp680
g627
I00
S'\xaf\xdbC\xab\xc34\x13\xc0\xac\n\xb0\xc3\x91<E\xc0G\xf3\xea\xa0[J\r\xc0'
p681
tp682
bsg632
S'Cell[3].axon[0]'
p683
sI15
I29
tp684
a(F0.3077359830836015
S'Cell[2].dend[23] syn_ = new FastInhib(0.928571428571)'
p685
I2
(dp686
g617
F0.5
sg618
F3.0
sg619
I15
sg620
g7
(g8
(I0
tp687
g10
tp688
Rp689
(I1
(I3
tp690
g627
I00
S'\xda,\x1f\xf2k\x00$@8\xa3_\x9a\xe46h\xc0\xca^\xf9W\xb8e1@'
p691
tp692
bsg632
S'Cell[3].axon[131]'
p693
sI15
I9
tp694
a(F2.3779869113085415
S'Cell[1].apic[1] syn_ = new ExpSid(0.5)'
p695
I1
(dp696
g617
F0.08823529411764705
sg618
F3.0
sg619
I15
sg620
g7
(g8
(I0
tp697
g10
tp698
Rp699
(I1
(I3
tp700
g627
I00
S'\x18(X\x0f\xf43=\xc0R`\xf5C\xfd\xb4R\xc0\x00\x00\x00\xa0Ga-\xc0'
p701
tp702
bsg632
S'Cell[3].axon[174]'
p703
sI15
I5
tp704
a(F1.423924880380613
S'Cell[6].dend[7] syn_ = new ExpSid(0.833333333333)'
p705
I6
(dp706
g617
F0.5
sg618
F3.0
sg619
I15
sg620
g7
(g8
(I0
tp707
g10
tp708
Rp709
(I1
(I3
tp710
g627
I00
S'\x1a+\xbc\x08\x96uG@D\xd5Se\xda\x880@\xa7\xc0\x9c\xb7G\x0e0@'
p711
tp712
bsg632
S'Cell[3].axon[200]'
p713
sI15
I25
tp714
a(F2.4386261084631204
S'Cell[2].dend[9] syn_ = new FastInhib(0.7)'
p715
I2
(dp716
g617
F0.8333333333333333
sg618
F3.0
sg619
I39
sg620
g7
(g8
(I0
tp717
g10
tp718
Rp719
(I1
(I3
tp720
g627
I00
S'"\xb8+Yf\x00T@\xe1/\x1d\xf9C\xa3R\xc0\x00\xe6.\x13?\xce)@'
p721
tp722
bsg632
S'Cell[9].axon[106]'
p723
sI39
I9
tp724
a(F1.1193386561629886
S'Cell[6].dend[14] syn_ = new ExpSid(0.833333333333)'
p725
I6
(dp726
g617
F0.5
sg618
F3.0
sg619
I39
sg620
g7
(g8
(I0
tp727
g10
tp728
Rp729
(I1
(I3
tp730
g627
I00
S'"?\xcbs\x83&G@b1\x0e\xfd9qY\xc0(\x91\x02=\xd3\xd8>\xc0'
p731
tp732
bsg632
S'Cell[9].axon[218]'
p733
sI39
I25
tp734
a(F2.278573101548067
S'Cell[4].apic[28] syn_ = new ExpSid(0.833333333333)'
p735
I4
(dp736
g617
F0.5
sg618
F3.0
sg619
I27
sg620
g7
(g8
(I0
tp737
g10
tp738
Rp739
(I1
(I3
tp740
g627
I00
S'\xdd\x06\xba\xe33\xd56@l\xcb\xce?\xf1\x03`@|\xa9\xd0NQ\x8a%\xc0'
p741
tp742
bsg632
S'Cell[6].axon[68]'
p743
sI27
I17
tp744
a(F1.7524473079488867
S'Cell[1].dend[3] syn_ = new ExpSid(0.3)'
p745
I1
(dp746
g617
F0.16666666666666666
sg618
F3.0
sg619
I27
sg620
g7
(g8
(I0
tp747
g10
tp748
Rp749
(I1
(I3
tp750
g627
I00
S"\xce\x89\x9b5\xb0\xa2<@\x16n'\xc1}\xda>\xc0|N\xe1\xa8\xa5\x8bC\xc0"
p751
tp752
bsg632
S'Cell[6].axon[80]'
p753
sI27
I5
tp754
a(F2.1874770070788325
S'Cell[6].dend[12] syn_ = new ExpSid(0.5)'
p755
I6
g746
I27
I25
tp756
a(F2.3865212710247303
S'Cell[3].dend[11] syn_ = new ExpSid(0.1)'
p757
I3
(dp758
g617
F0.5
sg618
F3.0
sg619
I27
sg620
g7
(g8
(I0
tp759
g10
tp760
Rp761
(I1
(I3
tp762
g627
I00
S'\x1b~\xf0\x96i\xceG@\xbbz\xec\x0e\xdeiP\xc0"7\x9a\x16\x81\xa5B\xc0'
p763
tp764
bsg632
S'Cell[6].axon[94]'
p765
sI27
I13
tp766
a(F2.495233731954487
S'Cell[5].dend[54] syn_ = new FastInhib(0.5)'
p767
I5
(dp768
g617
F0.5
sg618
F3.0
sg619
I27
sg620
g7
(g8
(I0
tp769
g10
tp770
Rp771
(I1
(I3
tp772
g627
I00
S"\x00\x00\x00\x90G\xe1+\xc0\x00\x00\x00\x08\xd7c \xc0\x00\x00\x00\xc0\xcc\xcc'\xc0"
p773
tp774
bsg632
S'Cell[6].axon[123]'
p775
sI27
I21
tp776
a(F0.763367275483334
S'Cell[5].dend[33] syn_ = new FastInhib(0.5)'
p777
I5
(dp778
g617
F0.5
sg618
F3.0
sg619
I27
sg620
g7
(g8
(I0
tp779
g10
tp780
Rp781
(I1
(I3
tp782
g627
I00
S'\xdc,%\n\x1dP6\xc0\xca\x9a*M\x838\xf9\xbf|\xa1\x18Rlw%\xc0'
p783
tp784
bsg632
S'Cell[6].axon[129]'
p785
sI27
I21
tp786
a(F1.3028697048008642
S'Cell[5].dend[54] syn_ = new FastInhib(0.5)'
p787
I5
(dp788
g617
F0.5
sg618
F3.0
sg619
I27
sg620
g7
(g8
(I0
tp789
g10
tp790
Rp791
(I1
(I3
tp792
g627
I00
S'\rY\xc7Q\x9f\x8f+\xc0\xb9\xd4@[\xbd\xa5%\xc0*;!\xae\x14i$\xc0'
p793
tp794
bsg632
S'Cell[6].axon[130]'
p795
sI27
I21
tp796
a(F2.1118678774571427
S'Cell[5].dend[0] syn_ = new FastInhib(0.5)'
p797
I5
(dp798
g617
F0.8333333333333333
sg618
F3.0
sg619
I27
sg620
g7
(g8
(I0
tp799
g10
tp800
Rp801
(I1
(I3
tp802
g627
I00
S'Ys\xeep\xa18A\xc0r\xc0\xdb5\xcf\xbd9\xc0(\xe57\xbf\xf3\xd9\xf0?'
p803
tp804
bsg632
S'Cell[6].axon[133]'
p805
sI27
I21
tp806
a(F1.0997883639063815
S'Cell[7].dend[10] syn_ = new ExpSid(0.5)'
p807
I7
(dp808
g617
F0.16666666666666666
sg618
F3.0
sg619
I27
sg620
g7
(g8
(I0
tp809
g10
tp810
Rp811
(I1
(I3
tp812
g627
I00
S'Z ZQ\xb7\xb4D@r\xb1g6\xa5\x87W\xc0\x92sNq\x0c3A\xc0'
p813
tp814
bsg632
S'Cell[6].axon[213]'
p815
sI27
I29
tp816
a(F2.254437608813765
S'Cell[3].apic[29] syn_ = new ExpSid(0.3)'
p817
I3
(dp818
g617
F0.8333333333333333
sg618
F3.0
sg619
I27
sg620
g7
(g8
(I0
tp819
g10
tp820
Rp821
(I1
(I3
tp822
g627
I00
S'\xe9\xcc\'\xe3)\x96"@\x1aG\x16\x07\xa6a\xf8?s\x08]<\xfa\xfe\'\xc0'
p823
tp824
bsg632
S'Cell[6].axon[219]'
p825
sI27
I13
tp826
a(F1.0729459937917765
S'Cell[6].dend[11] syn_ = new ExpSid(0.5)'
p827
I6
(dp828
g617
F0.5
sg618
F3.0
sg619
I27
sg620
g7
(g8
(I0
tp829
g10
tp830
Rp831
(I1
(I3
tp832
g627
I00
S'\xd1q\xd8koO7@/\x859O\xfc$2\xc0\xec\x0b_\x94m\x14@\xc0'
p833
tp834
bsg632
S'Cell[6].axon[281]'
p835
sI27
I25
tp836
a(F2.4945277409504034
S'Cell[0].apic[9] syn_ = new ExpSid(0.5)'
p837
I0
(dp838
g617
F0.5
sg618
F3.0
sg619
I27
sg620
g7
(g8
(I0
tp839
g10
tp840
Rp841
(I1
(I3
tp842
g627
I00
S'\x94x\r\x84\x0c\xf3#\xc0}\xd6\x9c\x9d\x07TG@\x82\x08t\x80\xdc"@\xc0'
p843
tp844
bsg632
S'Cell[6].axon[305]'
p845
sI27
I1
tp846
a.