(lp0
(F1.7283384318114305
S'Cell[4].dend[4] syn_ = new ExpSid(0.166666666667)'
p1
I4
(dp2
S'seg'
p3
F0.6111111111111112
sS'hostfrom'
p4
F1.0
sS'gid'
p5
I37
sS'coords'
p6
cnumpy.core.multiarray
_reconstruct
p7
(cnumpy
ndarray
p8
(I0
tp9
S'b'
p10
tp11
Rp12
(I1
(I3
tp13
cnumpy
dtype
p14
(S'f8'
p15
I0
I1
tp16
Rp17
(I3
S'<'
p18
NNNI-1
I-1
I0
tp19
bI00
S'(\xf4\xf8\x9c\xcf\x87#@\x04\xf5\xc5hk5B@\x10]\xce\x8a\x95o?\xc0'
p20
tp21
bsS'secnames'
p22
S'Cell[7].axon[3]'
p23
sI37
I22
tp24
a(F1.8858335935335193
S'Cell[1].apic[270] syn_ = new ExpSid(0.5)'
p25
I1
(dp26
g3
F0.5
sg4
F1.0
sg5
I37
sg6
g7
(g8
(I0
tp27
g10
tp28
Rp29
(I1
(I3
tp30
g17
I00
S'w&.\x7f\xeb\xf9A\xc0\x08\xc8\xfbj\xb6a]\xc0CFE\x7f\x9d\xcc"\xc0'
p31
tp32
bsg22
S'Cell[7].axon[17]'
p33
sI37
I7
tp34
a(F0.6216967452346882
S'Cell[0].apic[16] syn_ = new ExpSid(0.833333333333)'
p35
I0
(dp36
g3
F0.7
sg4
F1.0
sg5
I47
sg6
g7
(g8
(I0
tp37
g10
tp38
Rp39
(I1
(I3
tp40
g17
I00
S'\xc4iB\xaf\xbfFB\xc0\x1e2\xd211_`@\xe8\xe6\xe7\x0ep\x840\xc0'
p41
tp42
bsg22
S'Cell[9].axon[37]'
p43
sI47
I2
tp44
a(F1.7906369225832528
S'Cell[1].apic[75] syn_ = new AmpaNmda(0.166666666667)'
p45
I1
(dp46
g3
F0.7222222222222223
sg4
F1.0
sg5
I22
sg6
g7
(g8
(I0
tp47
g10
tp48
Rp49
(I1
(I3
tp50
g17
I00
S'K\x86\x98]\x03\x84V\xc0/\t7H\xb6bY@\x00\x00\x00@\xe1z\x15\xc0'
p51
tp52
bsg22
S'Cell[4].axon[6]'
p53
sI22
I7
tp54
a(F0.782248057670889
S'Cell[4].dend[21] syn_ = new ExpSid(0.5)'
p55
I4
(dp56
g3
F0.5
sg4
F1.0
sg5
I27
sg6
g7
(g8
(I0
tp57
g10
tp58
Rp59
(I1
(I3
tp60
g17
I00
S'\x0c\x00\x00p\x14.#\xc0\x00\x00\x00\x00\x00\x004@\x00\x00\x00`\x8f\xc2\x12@'
p61
tp62
bsg22
S'Cell[5].soma[0]'
p63
sI27
I22
tp64
a(F1.0053472590013766
S'Cell[9].dend[20] syn_ = new ExpSid(0.5)'
p65
I9
(dp66
S'seg'
p67
F0.5
sS'hostfrom'
p68
F2.0
sS'gid'
p69
I33
sS'coords'
p70
g7
(g8
(I0
tp71
g10
tp72
Rp73
(I1
(I3
tp74
g14
(S'f8'
p75
I0
I1
tp76
Rp77
(I3
S'<'
p78
NNNI-1
I-1
I0
tp79
bI00
S'\xcc7\xa4\xe7\xb5\x06?@t\x87\x991\xb3\x07R\xc0\xa8T\xb6\x0f\x1e\x98\x1e@'
p80
tp81
bsS'secnames'
p82
S'Cell[6].axon[36]'
p83
sI33
I47
tp84
a(F1.7053076226184036
S'Cell[1].apic[230] syn_ = new ExpSid(0.833333333333)'
p85
I1
(dp86
g67
F0.21428571428571427
sg68
F2.0
sg69
I3
sg70
g7
(g8
(I0
tp87
g10
tp88
Rp89
(I1
(I3
tp90
g77
I00
S'|3[v\xaf\x93\x0b\xc0Z\xb2\x14\x05\xbf%a\xc00\x0c\x9f~Q\x07\x19\xc0'
p91
tp92
bsg82
S'Cell[0].axon[77]'
p93
sI3
I7
tp94
a(F2.4317515846455153
S'Cell[1].apic[171] syn_ = new AmpaNmda(0.0555555555556)'
p95
I1
(dp96
g67
F0.16666666666666666
sg68
F2.0
sg69
I8
sg70
g7
(g8
(I0
tp97
g10
tp98
Rp99
(I1
(I3
tp100
g77
I00
S'\x94i\xa5\x91\x04\xa0L@h\xcfR\xe8\xd0\x9ck\xc0X\xef)Pq\x9e\x12@'
p101
tp102
bsg82
S'Cell[1].axon[6]'
p103
sI8
I7
tp104
a(F1.098593157426003
S'Cell[7].dend[37] syn_ = new ExpSid(0.833333333333)'
p105
I7
(dp106
g67
F0.5
sg68
F2.0
sg69
I13
sg70
g7
(g8
(I0
tp107
g10
tp108
Rp109
(I1
(I3
tp110
g77
I00
S'\x00\x00\x00`\x8f\x02M@\x00\x00\x00 \xaeG8\xc0\x00\x00\x00`\x8f\xc2\x18\xc0'
p111
tp112
bsg82
S'Cell[2].soma[0]'
p113
sI13
I37
tp114
a(F1.7589926334256694
S'Cell[2].dend[22] syn_ = new ExpSid(0.166666666667)'
p115
I2
(dp116
g67
F0.49999999999999994
sg68
F2.0
sg69
I13
sg70
g7
(g8
(I0
tp117
g10
tp118
Rp119
(I1
(I3
tp120
g77
I00
S'\xe6U\xad\xd8j\t8\xc0F\x9a\x16%\x8a\x1dR\xc0\x00\x00\x00\x80=\x8a5\xc0'
p121
tp122
bsg82
S'Cell[2].axon[12]'
p123
sI13
I12
tp124
a(F1.4533315259797108
S'Cell[9].dend[2] syn_ = new AmpaNmda(0.166666666667)'
p125
I9
(dp126
g67
F0.05555555555555555
sg68
F2.0
sg69
I48
sg70
g7
(g8
(I0
tp127
g10
tp128
Rp129
(I1
(I3
tp130
g77
I00
S'\xb6\x84\x9f\x90\x84\xb3M\xc0n\xefd\x8d\x1c7D\xc0\xd3Q\xe1e\x01o\xf4\xbf'
p131
tp132
bsg82
S'Cell[9].axon[1]'
p133
sI48
I47
tp134
a(F1.712601705083219
S'Cell[2].dend[48] syn_ = new ExpSid(0.166666666667)'
p135
I2
(dp136
S'seg'
p137
F0.5
sS'hostfrom'
p138
F3.0
sS'gid'
p139
I39
sS'coords'
p140
g7
(g8
(I0
tp141
g10
tp142
Rp143
(I1
(I3
tp144
g14
(S'f8'
p145
I0
I1
tp146
Rp147
(I3
S'<'
p148
NNNI-1
I-1
I0
tp149
bI00
S'\xd1\x8d\xa3^N\xf8\x19@D\x91@\xaa\x8a\xafO\xc0D\xe5]\x12\x95+\xe9\xbf'
p150
tp151
bsS'secnames'
p152
S'Cell[7].axon[0]'
p153
sI39
I12
tp154
a(F2.32343417476068
S'Cell[2].dend[22] syn_ = new ExpSid(0.833333333333)'
p155
I2
(dp156
g137
F0.30000000000000004
sg138
F3.0
sg139
I39
sg140
g7
(g8
(I0
tp157
g10
tp158
Rp159
(I1
(I3
tp160
g147
I00
S'T\x07rG\xf4X\xe2\xbf\x80\xeb\xe3[S\\[\xc0\x93\xf7`\xb0\xc1\x9fA\xc0'
p161
tp162
bsg152
S'Cell[7].axon[44]'
p163
sI39
I12
tp164
a(F1.4202448024679724
S'Cell[7].dend[20] syn_ = new ExpSid(0.166666666667)'
p165
I7
(dp166
g137
F0.5
sg138
F3.0
sg139
I9
sg140
g7
(g8
(I0
tp167
g10
tp168
Rp169
(I1
(I3
tp170
g147
I00
S'\x00\x00\x00\xe8z\xd42\xc0\x00\x00\x00\xe0\xa3p\x1a@\x00\x00\x00\xe0\xa3\xf04\xc0'
p171
tp172
bsg152
S'Cell[1].soma[0]'
p173
sI9
I37
tp174
a(F1.1322817867387935
S'Cell[9].dend[1] syn_ = new AmpaNmda(0.5)'
p175
I9
(dp176
g137
F0.5
sg138
F3.0
sg139
I44
sg140
g7
(g8
(I0
tp177
g10
tp178
Rp179
(I1
(I3
tp180
g147
I00
S'\\j\xa0\xdd\xcb\xc6I\xc0\xa7\xa9\xc0\x03\xd9o0\xc0\x1ao-\xbd0\x0c\x07\xc0'
p181
tp182
bsg152
S'Cell[8].axon[2]'
p183
sI44
I47
tp184
a(F2.1887330837934065
S'Cell[7].dend[13] syn_ = new AmpaNmda(0.785714285714)'
p185
I7
(dp186
g137
F0.5
sg138
F3.0
sg139
I44
sg140
g7
(g8
(I0
tp187
g10
tp188
Rp189
(I1
(I3
tp190
g147
I00
S'\x00\x00\x00\xa0\x99}`\xc0\x00\x00\x00 \x85\xa3P@\x00\x00\x00\xa0p=?@'
p191
tp192
bsg152
S'Cell[8].axon[15]'
p193
sI44
I37
tp194
a(F1.6435691666033019
S'Cell[7].dend[19] syn_ = new AmpaNmda(0.5)'
p195
I7
(dp196
g137
F0.8333333333333333
sg138
F3.0
sg139
I44
sg140
g7
(g8
(I0
tp197
g10
tp198
Rp199
(I1
(I3
tp200
g147
I00
S'\xba&o\x80\xbd\xc5)\xc0F\xb2\x06\xe5/\x1c!@\n\xf6\xe6\x18C)\x1e\xc0'
p201
tp202
bsg152
S'Cell[8].axon[17]'
p203
sI44
I37
tp204
a(F2.3974033893232143
S'Cell[3].dend[2] syn_ = new AmpaNmda(0.166666666667)'
p205
I3
(dp206
g137
F0.5
sg138
F3.0
sg139
I44
sg140
g7
(g8
(I0
tp207
g10
tp208
Rp209
(I1
(I3
tp210
g147
I00
S'"W\xa5\xcb\xbb\x14a\xc0\xd6\xbd\x1eg\xb0\xb9Z@\x00\x05\xe2[{\xd06@'
p211
tp212
bsg152
S'Cell[8].axon[43]'
p213
sI44
I17
tp214
a(F1.358618488660659
S'Cell[7].dend[43] syn_ = new AmpaNmda(0.5)'
p215
I7
(dp216
g137
F0.5
sg138
F3.0
sg139
I24
sg140
g7
(g8
(I0
tp217
g10
tp218
Rp219
(I1
(I3
tp220
g147
I00
S'\x00\x00\x00\xc0\xf5(5@\x00\x00\x00 \xae\xc7#@\x00\x00\x00 \xaeG\x1f\xc0'
p221
tp222
bsg152
S'Cell[4].soma[0]'
p223
sI24
I37
tp224
a(F2.4821100697973604
S'Cell[5].apic[20] syn_ = new ExpSid(0.5)'
p225
I5
(dp226
S'seg'
p227
F0.045454545454545456
sS'hostfrom'
p228
F4.0
sS'gid'
p229
I5
sS'coords'
p230
g7
(g8
(I0
tp231
g10
tp232
Rp233
(I1
(I3
tp234
g14
(S'f8'
p235
I0
I1
tp236
Rp237
(I3
S'<'
p238
NNNI-1
I-1
I0
tp239
bI00
S'Z\x05T\xa5\xc0\x9b;\xc0j\x80\x99g\x16rN@X\x15\xb9G\x1a\xe0\x1b@'
p240
tp241
bsS'secnames'
p242
S'Cell[0].axon[16]'
p243
sI5
I27
tp244
a(F2.4491432496970478
S'Cell[6].apic[1] syn_ = new ExpSid(0.5)'
p245
I6
(dp246
g227
F0.045454545454545456
sg228
F4.0
sg229
I5
sg230
g7
(g8
(I0
tp247
g10
tp248
Rp249
(I1
(I3
tp250
g237
I00
S'\xdd9\x8b\xf6\x10uF@W\xad\xd7@O\xb0S@\x00\x00\x00\xc0\x1e\x85\xf7\xbf'
p251
tp252
bsg242
S'Cell[0].axon[70]'
p253
sI5
I32
tp254
a(F2.117852342503987
S'Cell[2].dend[44] syn_ = new AmpaNmda(0.5)'
p255
I2
(dp256
g227
F0.13636363636363635
sg228
F4.0
sg229
I40
sg230
g7
(g8
(I0
tp257
g10
tp258
Rp259
(I1
(I3
tp260
g237
I00
S'\xfe\xd4`\xae~6\xf7?KO\xb5\x88\xfeFK\xc08\xd0\xceH8\x922\xc0'
p261
tp262
bsg242
S'Cell[7].axon[16]'
p263
sI40
I12
tp264
a(F1.0387302936735212
S'Cell[9].apic[18] syn_ = new AmpaNmda(0.5)'
p265
I9
(dp266
g227
F0.8333333333333333
sg228
F4.0
sg229
I10
sg230
g7
(g8
(I0
tp267
g10
tp268
Rp269
(I1
(I3
tp270
g237
I00
S'\x92\xeebWq\xe47@\x19w5\xf6\xcaln@\x00\x00\x00\x80\x14.4@'
p271
tp272
bsg242
S'Cell[1].axon[27]'
p273
sI10
I47
tp274
a.