(lp0
(F1.2296112755009743
S'Cell[2].apic[3] syn_ = new ExpSid(0.5)'
p1
I2
(dp2
S'seg'
p3
F0.7
sS'hostfrom'
p4
F0.0
sS'gid'
p5
I0
sS'coords'
p6
cnumpy.core.multiarray
_reconstruct
p7
(cnumpy
ndarray
p8
(I0
tp9
S'b'
p10
tp11
Rp12
(I1
(I3
tp13
cnumpy
dtype
p14
(S'f8'
p15
I0
I1
tp16
Rp17
(I3
S'<'
p18
NNNI-1
I-1
I0
tp19
bI00
S'\x9c\x17i\x93-\xe1^@\xde@b\x91\x93\xf6/@\x00\x00\x00\x80=\n.@'
p20
tp21
bsS'secnames'
p22
S'Cell[0].axon[136]'
p23
sI0
I8
tp24
a(F2.2070027041502174
S'Cell[3].dend[33] syn_ = new FastInhib(0.5)'
p25
I3
(dp26
g3
F0.8333333333333333
sg4
F0.0
sg5
I0
sg6
g7
(g8
(I0
tp27
g10
tp28
Rp29
(I1
(I3
tp30
g17
I00
S'!\xae\xcc\x0c\xcc\x12F@*\xe8w\xa6>\xaeT@z&\xa3\xe1\x16W\x1e\xc0'
p31
tp32
bsg22
S'Cell[0].axon[279]'
p33
sI0
I12
tp34
a(F2.0879170799273017
S'Cell[4].dend[26] syn_ = new ExpSid(0.5)'
p35
I4
(dp36
g3
F0.16666666666666666
sg4
F0.0
sg5
I8
sg6
g7
(g8
(I0
tp37
g10
tp38
Rp39
(I1
(I3
tp40
g17
I00
S'%\xbc1\x16\x1a\x9e_\xc0\x10\n\x0e`\xd5\x84D\xc0\x11){\xf2h\x044@'
p41
tp42
bsg22
S'Cell[2].axon[42]'
p43
sI8
I16
tp44
a(F1.4192626810131126
S'Cell[1].apic[4] syn_ = new ExpSid(0.5)'
p45
I1
(dp46
g3
F0.8333333333333333
sg4
F0.0
sg5
I12
sg6
g7
(g8
(I0
tp47
g10
tp48
Rp49
(I1
(I3
tp50
g17
I00
S'^}\x10SfvP@\x1e\x10\xac\x93\x86\xa6=@\xb7\x1d2\x10ZZ\xd3?'
p51
tp52
bsg22
S'Cell[3].axon[253]'
p53
sI12
I4
tp54
a(F2.292218446685149
S'Cell[4].apic[62] syn_ = new ExpSid(0.5)'
p55
I4
(dp56
g3
F0.5
sg4
F0.0
sg5
I12
sg6
g7
(g8
(I0
tp57
g10
tp58
Rp59
(I1
(I3
tp60
g17
I00
S'n\x11#u\xc1\xeeM@\xf8{\xc8iV\x06g@\x00\x00\x00 \\\x8f\xf6?'
p61
tp62
bsg22
S'Cell[3].axon[325]'
p63
sI12
I16
tp64
a(F0.9657680118448324
S'Cell[0].dend[46] syn_ = new FastInhib(0.833333333333)'
p65
I0
(dp66
g3
F0.16666666666666666
sg4
F0.0
sg5
I12
sg6
g7
(g8
(I0
tp67
g10
tp68
Rp69
(I1
(I3
tp70
g17
I00
S"\xdfOZCT@A@\xac\x9d\xf8\xa6\xb0\xdc6\xc0)'\x18S\x13\xca7\xc0"
p71
tp72
bsg22
S'Cell[3].axon[382]'
p73
sI12
I0
tp74
a(F2.375115361315017
S'Cell[0].dend[6] syn_ = new FastInhib(0.0714285714286)'
p75
I0
(dp76
g3
F0.16666666666666666
sg4
F0.0
sg5
I12
sg6
g7
(g8
(I0
tp77
g10
tp78
Rp79
(I1
(I3
tp80
g17
I00
S'\xe8\xe1#Pu\x05\x1d@`\xe7\x8c6\x8f\xcf4@\x00\x00\x00\x00)\\(\xc0'
p81
tp82
bsg22
S'Cell[3].axon[443]'
p83
sI12
I0
tp84
a(F2.4051386849071914
S'Cell[4].dend[65] syn_ = new ExpSid(0.7)'
p85
I4
(dp86
S'seg'
p87
F0.5
sS'hostfrom'
p88
F1.0
sS'gid'
p89
I1
sS'coords'
p90
g7
(g8
(I0
tp91
g10
tp92
Rp93
(I1
(I3
tp94
g14
(S'f8'
p95
I0
I1
tp96
Rp97
(I3
S'<'
p98
NNNI-1
I-1
I0
tp99
bI00
S'\xdc\xc7\xd4\x14\x0cSG@\xe6\xad\x80\x0f<\x07Q\xc0\x02\xf1 R\x9c]\x1c@'
p100
tp101
bsS'secnames'
p102
S'Cell[0].axon[4]'
p103
sI1
I16
tp104
a(F2.384707805866366
S'Cell[1].dend[20] syn_ = new ExpSid(0.3)'
p105
I1
(dp106
g87
F0.5
sg88
F1.0
sg89
I13
sg90
g7
(g8
(I0
tp107
g10
tp108
Rp109
(I1
(I3
tp110
g97
I00
S'\xfe\xc9E\xc7\x1e\xa0*@\xcb{\x91&<PS\xc0_\x1e\x9a\x08\x17\xfd\x07@'
p111
tp112
bsg102
S'Cell[3].axon[6]'
p113
sI13
I4
tp114
a(F2.3493229512018274
S'Cell[2].dend[65] syn_ = new ExpSid(0.5)'
p115
I2
(dp116
g87
F0.16666666666666666
sg88
F1.0
sg89
I9
sg90
g7
(g8
(I0
tp117
g10
tp118
Rp119
(I1
(I3
tp120
g97
I00
S'\x00\x00\x00\x80\xf7(2\xc0\x8a\xda\xdb^\xf0\xe3O\xc0jo4\xf0}t\xda?'
p121
tp122
bsg102
S'Cell[2].axon[77]'
p123
sI9
I8
tp124
a(F2.0797430328753994
S'Cell[3].dend[27] syn_ = new FastInhib(0.166666666667)'
p125
I3
(dp126
g87
F0.8333333333333333
sg88
F1.0
sg89
I9
sg90
g7
(g8
(I0
tp127
g10
tp128
Rp129
(I1
(I3
tp130
g97
I00
S'\x9a\xfa0F\xe0\x01M@b(\x93\xb8\xea\xac;@8\x18!Pp#/\xc0'
p131
tp132
bsg102
S'Cell[2].axon[176]'
p133
sI9
I12
tp134
a(F2.480242514162585
S'Cell[1].apic[17] syn_ = new ExpSid(0.5)'
p135
I1
(dp136
g87
F0.16666666666666666
sg88
F1.0
sg89
I9
sg90
g7
(g8
(I0
tp137
g10
tp138
Rp139
(I1
(I3
tp140
g97
I00
S'I&\xfaJ\x08w:@P\xbe\xcd1\xcd\x13U@\xad \xd0\xfb\xfb\x00$\xc0'
p141
tp142
bsg102
S'Cell[2].axon[192]'
p143
sI9
I4
tp144
a(F0.9641323098697092
S'Cell[0].dend[4] syn_ = new FastInhib(0.5)'
p145
I0
(dp146
g87
F0.5
sg88
F1.0
sg89
I9
sg90
g7
(g8
(I0
tp147
g10
tp148
Rp149
(I1
(I3
tp150
g97
I00
S'a\xdd\x92\x97(\x166@\xd0\xbf\xce\x02W(V@\x90\x0eb\x19\x96\xee\r@'
p151
tp152
bsg102
S'Cell[2].axon[192]'
p153
sI9
I0
tp154
a(F1.9560531482672374
S'Cell[4].apic[80] syn_ = new ExpSid(0.3)'
p155
I4
(dp156
g87
F0.8333333333333333
sg88
F1.0
sg89
I9
sg90
g7
(g8
(I0
tp157
g10
tp158
Rp159
(I1
(I3
tp160
g97
I00
S'q\xff\xe2q[\xcc\x14\xc0\xb6\xe7\xbf\xcc\t"R@"DgtS\xf2&@'
p161
tp162
bsg102
S'Cell[2].axon[326]'
p163
sI9
I16
tp164
a(F1.7314132880328779
S'Cell[2].dend[3] syn_ = new ExpSid(0.5)'
p165
I2
(dp166
g87
F0.5
sg88
F1.0
sg89
I9
sg90
g7
(g8
(I0
tp167
g10
tp168
Rp169
(I1
(I3
tp170
g97
I00
S'\xc6H\xe3\x8c\xa7\xef@@\xa1\x8a\x85\xc1Z\xc1I\xc0\x86\xa4A,\x1e\x9e#@'
p171
tp172
bsg102
S'Cell[2].axon[340]'
p173
sI9
I8
tp174
a(F1.4155009415908546
S'Cell[3].dend[7] syn_ = new FastInhib(0.5)'
p175
I3
(dp176
S'seg'
p177
F0.5
sS'hostfrom'
p178
F2.0
sS'gid'
p179
I18
sS'coords'
p180
g7
(g8
(I0
tp181
g10
tp182
Rp183
(I1
(I3
tp184
g14
(S'f8'
p185
I0
I1
tp186
Rp187
(I3
S'<'
p188
NNNI-1
I-1
I0
tp189
bI00
S'\xd5\xa1e\xce\xfd?I@d\xbc\x14\x8c\x16\xcf!@\x00\x00\x00\x80\x14\xae\x01@'
p190
tp191
bsS'secnames'
p192
S'Cell[4].axon[70]'
p193
sI18
I12
tp194
a(F1.6287668619553175
S'Cell[0].dend[24] syn_ = new FastInhib(0.5)'
p195
I0
(dp196
g177
F0.5
sg178
F2.0
sg179
I6
sg180
g7
(g8
(I0
tp197
g10
tp198
Rp199
(I1
(I3
tp200
g187
I00
S'\xc9\xe8\x08Wqm\x12@\x89\x00?\x14y\xf9p@.xP\x9c\xb1\x18(@'
p201
tp202
bsg192
S'Cell[1].axon[7]'
p203
sI6
I0
tp204
a(F2.345910744750167
S'Cell[2].apic[27] syn_ = new ExpSid(0.5)'
p205
I2
(dp206
g177
F0.5
sg178
F2.0
sg179
I6
sg180
g7
(g8
(I0
tp207
g10
tp208
Rp209
(I1
(I3
tp210
g187
I00
S'\x00\x00\x00`\xf5\xe8^@\x00\x00\x00\x00\x00\x04`@\x00\x00\x00@\xe1:1@'
p211
tp212
bsg192
S'Cell[1].axon[51]'
p213
sI6
I8
tp214
a(F1.3507914074501006
S'Cell[2].dend[10] syn_ = new ExpSid(0.9)'
p215
I2
(dp216
S'seg'
p217
F0.26
sS'hostfrom'
p218
F3.0
sS'gid'
p219
I11
sS'coords'
p220
g7
(g8
(I0
tp221
g10
tp222
Rp223
(I1
(I3
tp224
g14
(S'f8'
p225
I0
I1
tp226
Rp227
(I3
S'<'
p228
NNNI-1
I-1
I0
tp229
bI00
S'\x17\xb2\xcd\xc0q\x81^@\xf4+\xf1\xb7i\xbda\xc0\xe2\xf0\xd1*\xab\xe62@'
p230
tp231
bsS'secnames'
p232
S'Cell[2].axon[21]'
p233
sI11
I8
tp234
a(F1.8456214060848852
S'Cell[0].dend[40] syn_ = new FastInhib(0.642857142857)'
p235
I0
(dp236
g217
F0.5
sg218
F3.0
sg219
I15
sg220
g7
(g8
(I0
tp237
g10
tp238
Rp239
(I1
(I3
tp240
g227
I00
S'\x00\xfcT\xb7\x83\x08-@^(L\xce_>\\\xc0A\x11h\x1ek\x19!\xc0'
p241
tp242
bsg232
S'Cell[3].axon[100]'
p243
sI15
I0
tp244
a(F2.0818838053744906
S'Cell[1].dend[22] syn_ = new ExpSid(0.5)'
p245
I1
(dp246
g217
F0.029411764705882353
sg218
F3.0
sg219
I15
sg220
g7
(g8
(I0
tp247
g10
tp248
Rp249
(I1
(I3
tp250
g227
I00
S'\xca\x1a1\xcf\xa6C5\xc0\xa4\xce\x92\x83m\x8dK\xc0J\xbb\xfdZ\x8d\x82-\xc0'
p251
tp252
bsg232
S'Cell[3].axon[174]'
p253
sI15
I4
tp254
a(F2.081401223185298
S'Cell[4].apic[71] syn_ = new ExpSid(0.5)'
p255
I4
(dp256
g217
F0.16666666666666666
sg218
F3.0
sg219
I15
sg220
g7
(g8
(I0
tp257
g10
tp258
Rp259
(I1
(I3
tp260
g227
I00
S'\x18Cn\xe9TYB\xc0Q\xe0\xa9w\xe0\x8cZ@\x14\xd3\xedo\xb1\x0c\xe0\xbf'
p261
tp262
bsg232
S'Cell[3].axon[319]'
p263
sI15
I16
tp264
a(F2.4290743556793473
S'Cell[0].dend[45] syn_ = new FastInhib(0.0555555555556)'
p265
I0
(dp266
g217
F0.7
sg218
F3.0
sg219
I3
sg220
g7
(g8
(I0
tp267
g10
tp268
Rp269
(I1
(I3
tp270
g227
I00
S'dN\xc2\n\x1b\xa9!\xc0\xb4\x0f`p\x10I;\xc0\x00\x00\x00\xa0Ga$\xc0'
p271
tp272
bsg232
S'Cell[0].axon[201]'
p273
sI3
I0
tp274
a.