(lp0
(F2.200663305159668
S'Cell[0].apic[26] syn_ = new ExpSid(0.5)'
p1
I0
(dp2
S'seg'
p3
F0.5
sS'hostfrom'
p4
F0.0
sS'gid'
p5
I0
sS'coords'
p6
cnumpy.core.multiarray
_reconstruct
p7
(cnumpy
ndarray
p8
(I0
tp9
S'b'
p10
tp11
Rp12
(I1
(I3
tp13
cnumpy
dtype
p14
(S'f8'
p15
I0
I1
tp16
Rp17
(I3
S'<'
p18
NNNI-1
I-1
I0
tp19
bI00
S'TQ5Y\x1bCM\xc0\x08\x0e\xbe\x1e\x01\x05B@0\xec\xdcZM\xe8(\xc0'
p20
tp21
bsS'secnames'
p22
S'Cell[0].axon[6]'
p23
sI0
I2
tp24
a(F1.6643857238857713
S'Cell[2].dend[38] syn_ = new ExpSid(0.5)'
p25
I2
(dp26
g3
F0.16666666666666666
sg4
F0.0
sg5
I0
sg6
g7
(g8
(I0
tp27
g10
tp28
Rp29
(I1
(I3
tp30
g17
I00
S'.rv1?<H\xc0\xd2X\xf9\xb3=U?\xc0\x96\xbd#\xab\xc3!\xf9?'
p31
tp32
bsg22
S'Cell[0].axon[30]'
p33
sI0
I10
tp34
a(F0.7428042630163239
S'Cell[0].dend[35] syn_ = new ExpSid(0.166666666667)'
p35
I0
(dp36
g3
F0.5
sg4
F0.0
sg5
I0
sg6
g7
(g8
(I0
tp37
g10
tp38
Rp39
(I1
(I3
tp40
g17
I00
S'\xe0\xadM\xd9K3;\xc0\x00\\\xed\xfe\xea\xaa+\xc0{f\xd2#\xfd\xfe+\xc0'
p41
tp42
bsg22
S'Cell[0].axon[84]'
p43
sI0
I2
tp44
a(F1.3427286991191325
S'Cell[0].apic[21] syn_ = new ExpSid(0.5)'
p45
I0
(dp46
g3
F0.5
sg4
F0.0
sg5
I0
sg6
g7
(g8
(I0
tp47
g10
tp48
Rp49
(I1
(I3
tp50
g17
I00
S'\xa80\x16\xa3\xb8kP\xc0`-\\f\xc1\x0bS@\xd6\xa9\xe38e\x8c!\xc0'
p51
tp52
bsg22
S'Cell[0].axon[179]'
p53
sI0
I2
tp54
a(F2.2025462787511705
S'Cell[1].dend[0] syn_ = new FastInhib(0.5)'
p55
I1
(dp56
g3
F0.8333333333333333
sg4
F0.0
sg5
I0
sg6
g7
(g8
(I0
tp57
g10
tp58
Rp59
(I1
(I3
tp60
g17
I00
S'nX]M\xd8A3@\x8a<\x170\x02-3@#n=\xbct\x88\xe1\xbf'
p61
tp62
bsg22
S'Cell[0].axon[199]'
p63
sI0
I6
tp64
a(F1.574175858644241
S'Cell[4].apic[5] syn_ = new FastInhib(0.0555555555556)'
p65
I4
(dp66
g3
F0.5
sg4
F0.0
sg5
I4
sg6
g7
(g8
(I0
tp67
g10
tp68
Rp69
(I1
(I3
tp70
g17
I00
S'H\x14\t,\x83vA@\xd3A\x98\xe5>\xf9K\xc0\xf74\xca\x8a\xcf\x95\x10@'
p71
tp72
bsg22
S'Cell[1].axon[23]'
p73
sI4
I18
tp74
a(F2.4554444050222055
S'Cell[1].dend[53] syn_ = new FastInhib(0.9)'
p75
I1
(dp76
g3
F0.5
sg4
F0.0
sg5
I12
sg6
g7
(g8
(I0
tp77
g10
tp78
Rp79
(I1
(I3
tp80
g17
I00
S'\xa8*Lc\x05\xdeH@u\xcai#N\xb6S@\x17\xdf?Y\xfa\xe9-\xc0'
p81
tp82
bsg22
S'Cell[3].axon[329]'
p83
sI12
I6
tp84
a(F2.4346538941882345
S'Cell[3].dend[2] syn_ = new ExpSid(0.7)'
p85
I3
(dp86
S'seg'
p87
F0.16666666666666666
sS'hostfrom'
p88
F1.0
sS'gid'
p89
I17
sS'coords'
p90
g7
(g8
(I0
tp91
g10
tp92
Rp93
(I1
(I3
tp94
g14
(S'f8'
p95
I0
I1
tp96
Rp97
(I3
S'<'
p98
NNNI-1
I-1
I0
tp99
bI00
S'\xf4\xfd+\xc0H\xe9U\xc0\xbeh\xd1^\xa5\xc4*@\xb5^\xfe\xe3\xed\xdb\x1d@'
p100
tp101
bsS'secnames'
p102
S'Cell[4].axon[12]'
p103
sI17
I14
tp104
a(F1.57180849120136
S'Cell[3].apic[12] syn_ = new ExpSid(0.5)'
p105
I3
(dp106
g87
F0.8333333333333333
sg88
F1.0
sg89
I9
sg90
g7
(g8
(I0
tp107
g10
tp108
Rp109
(I1
(I3
tp110
g97
I00
S'^\xb4\xa1\x02\xfb\x10(@\xd1\x07\xe4\xd6\xb0MW@\xad\x15\xac\xf4\xf7\xce-@'
p111
tp112
bsg102
S'Cell[2].axon[192]'
p113
sI9
I14
tp114
a(F1.490944330428297
S'Cell[4].dend[1] syn_ = new FastInhib(0.833333333333)'
p115
I4
(dp116
g87
F0.16666666666666666
sg88
F1.0
sg89
I9
sg90
g7
(g8
(I0
tp117
g10
tp118
Rp119
(I1
(I3
tp120
g97
I00
S"\xd2\xe4\\\xb0q\xdb\x1a\xc0\xff\xff\xff?\nW'\xc05D\xb2\xdb!\xad\x07@"
p121
tp122
bsg102
S'Cell[2].axon[302]'
p123
sI9
I18
tp124
a(F2.072806434588587
S'Cell[2].dend[33] syn_ = new ExpSid(0.833333333333)'
p125
I2
(dp126
g87
F0.5
sg88
F1.0
sg89
I9
sg90
g7
(g8
(I0
tp127
g10
tp128
Rp129
(I1
(I3
tp130
g97
I00
S'\n2-\xa4\x81\xf6N@D>P\x86\xad\\\xe3?\x9b\x1d\xd8\xf3\xe06\xe4\xbf'
p131
tp132
bsg102
S'Cell[2].axon[350]'
p133
sI9
I10
tp134
a(F1.8758992226100004
S'Cell[1].dend[48] syn_ = new FastInhib(0.833333333333)'
p135
I1
(dp136
S'seg'
p137
F0.5
sS'hostfrom'
p138
F2.0
sS'gid'
p139
I18
sS'coords'
p140
g7
(g8
(I0
tp141
g10
tp142
Rp143
(I1
(I3
tp144
g14
(S'f8'
p145
I0
I1
tp146
Rp147
(I3
S'<'
p148
NNNI-1
I-1
I0
tp149
bI00
S'\xda\xb8A\xf4\x7f\x91Q@\x18\xe6Q\xdcNsL@\xb5\x11\x88\x88\xe7\xa6E\xc0'
p150
tp151
bsS'secnames'
p152
S'Cell[4].axon[74]'
p153
sI18
I6
tp154
a(F0.47186975120519054
S'Cell[1].dend[35] syn_ = new FastInhib(0.1)'
p155
I1
(dp156
g137
F0.5
sg138
F2.0
sg139
I18
sg140
g7
(g8
(I0
tp157
g10
tp158
Rp159
(I1
(I3
tp160
g147
I00
S'\xa6Hk\xc8\xef\x8d@@\x085vx\x86`\xf4\xbfH\xaf"=\xf7e\x05@'
p161
tp162
bsg152
S'Cell[4].axon[105]'
p163
sI18
I6
tp164
a(F2.4266577245976904
S'Cell[3].dend[0] syn_ = new ExpSid(0.5)'
p165
I3
(dp166
g137
F0.5
sg138
F2.0
sg139
I10
sg140
g7
(g8
(I0
tp167
g10
tp168
Rp169
(I1
(I3
tp170
g147
I00
S'8?\x1f \x07R\x02\xc0m\xb9R(\xc8\x146@\x13s\xf3\x8f\x12u#@'
p171
tp172
bsg152
S'Cell[2].axon[4]'
p173
sI10
I14
tp174
a(F1.1228277692762787
S'Cell[3].apic[16] syn_ = new ExpSid(0.5)'
p175
I3
(dp176
g137
F0.16666666666666666
sg138
F2.0
sg139
I6
sg140
g7
(g8
(I0
tp177
g10
tp178
Rp179
(I1
(I3
tp180
g147
I00
S"\xd7C%:\x96\x1c'@\xdcV\xa1GL\xee[@o\xe5\x8f\xf9\xb8\x841@"
p181
tp182
bsg152
S'Cell[1].axon[3]'
p183
sI6
I14
tp184
a(F2.2595009723704083
S'Cell[0].dend[35] syn_ = new ExpSid(0.166666666667)'
p185
I0
(dp186
g137
F0.16666666666666666
sg138
F2.0
sg139
I6
sg140
g7
(g8
(I0
tp187
g10
tp188
Rp189
(I1
(I3
tp190
g147
I00
S'\x1c.p\xac\x81\x039\xc0Vr\x8c\x12\xca\x00*\xc0*\x9bt\xf7\xa7\xad*\xc0'
p191
tp192
bsg152
S'Cell[1].axon[231]'
p193
sI6
I2
tp194
a(F2.3635369263211583
S'Cell[4].apic[14] syn_ = new FastInhib(0.5)'
p195
I4
(dp196
S'seg'
p197
F0.16666666666666666
sS'hostfrom'
p198
F3.0
sS'gid'
p199
I15
sS'coords'
p200
g7
(g8
(I0
tp201
g10
tp202
Rp203
(I1
(I3
tp204
g14
(S'f8'
p205
I0
I1
tp206
Rp207
(I3
S'<'
p208
NNNI-1
I-1
I0
tp209
bI00
S'\xabjq\xb4\xf0\xdfS@}\x17N\xfb\xbd\xab_\xc0<\xcb\x94\xae\x0bv\x15\xc0'
p210
tp211
bsS'secnames'
p212
S'Cell[3].axon[86]'
p213
sI15
I18
tp214
a.