(lp0
(F2.4447815404544766
S'Cell[6].dend[23] syn_ = new AmpaNmda(0.833333333333)'
p1
I6
(dp2
S'seg'
p3
F0.5
sS'hostfrom'
p4
F1.0
sS'gid'
p5
I2
sS'coords'
p6
cnumpy.core.multiarray
_reconstruct
p7
(cnumpy
ndarray
p8
(I0
tp9
S'b'
p10
tp11
Rp12
(I1
(I3
tp13
cnumpy
dtype
p14
(S'f8'
p15
I0
I1
tp16
Rp17
(I3
S'<'
p18
NNNI-1
I-1
I0
tp19
bI00
S'\xe8\x1d\x9c?\xd2\xb7P\xc0h\xe2YbR\x96-@\x00\x00\x00 \x85\xab4@'
p20
tp21
bsS'secnames'
p22
S'Cell[0].axon[5]'
p23
sI2
I31
tp24
a(F1.937182490946698
S'Cell[4].dend[2] syn_ = new AmpaNmda(0.166666666667)'
p25
I4
(dp26
g3
F0.5
sg4
F1.0
sg5
I42
sg6
g7
(g8
(I0
tp27
g10
tp28
Rp29
(I1
(I3
tp30
g17
I00
S'\x00\x00\x00\x08\x00 @@\x00\x00\x00\xe0\xa3p\r\xc0\x00\x00\x00\xa0\x99\x19!\xc0'
p31
tp32
bsg22
S'Cell[8].soma[0]'
p33
sI42
I21
tp34
a(F1.8801918503843031
S'Cell[0].dend[20] syn_ = new AmpaNmda(0.5)'
p35
I0
(dp36
g3
F0.8999999999999999
sg4
F1.0
sg5
I42
sg6
g7
(g8
(I0
tp37
g10
tp38
Rp39
(I1
(I3
tp40
g17
I00
S'\xbd\xcb\xb7#NzS@$&.\x7f\xde\x06\x19@9|\xec^\xad\x8e\x0f@'
p41
tp42
bsg22
S'Cell[8].axon[15]'
p43
sI42
I1
tp44
a(F2.11521840787638
S'Cell[3].apic[66] syn_ = new AmpaNmda(0.5)'
p45
I3
(dp46
g3
F0.2777777777777778
sg4
F1.0
sg5
I22
sg6
g7
(g8
(I0
tp47
g10
tp48
Rp49
(I1
(I3
tp50
g17
I00
S'\xb7\x1a\x8a\x85W\xaf8\xc0\xc8\xa4h\x89\xcfI\\@p\x1ap\xf1oM!@'
p51
tp52
bsg22
S'Cell[4].axon[6]'
p53
sI22
I16
tp54
a(F1.8101979201595586
S'Cell[8].dend[13] syn_ = new ExpSid(0.833333333333)'
p55
I8
(dp56
g3
F0.8333333333333333
sg4
F1.0
sg5
I27
sg6
g7
(g8
(I0
tp57
g10
tp58
Rp59
(I1
(I3
tp60
g17
I00
S'n\xe1\xed\\\xad|,@\xb0\x0f\xdf\xaf\xeb\xe6\\\xc0/dNNE\xd0\x19@'
p61
tp62
bsg22
S'Cell[5].axon[36]'
p63
sI27
I41
tp64
a(F2.0280189871637035
S'Cell[1].dend[33] syn_ = new ExpSid(0.9)'
p65
I1
(dp66
S'seg'
p67
F0.4333333333333333
sS'hostfrom'
p68
F2.0
sS'gid'
p69
I33
sS'coords'
p70
g7
(g8
(I0
tp71
g10
tp72
Rp73
(I1
(I3
tp74
g14
(S'f8'
p75
I0
I1
tp76
Rp77
(I3
S'<'
p78
NNNI-1
I-1
I0
tp79
bI00
S'\xb2\xbdC\x10\xe0\x81E\xc0\x9e\xf2t@ \xb2Y\xc0t\xfc/\x1d\x89\xb7M\xc0'
p80
tp81
bsS'secnames'
p82
S'Cell[6].axon[30]'
p83
sI33
I6
tp84
a(F2.32656833491388
S'Cell[9].apic[49] syn_ = new ExpSid(0.5)'
p85
I9
(dp86
g67
F0.21428571428571427
sg68
F2.0
sg69
I3
sg70
g7
(g8
(I0
tp87
g10
tp88
Rp89
(I1
(I3
tp90
g77
I00
S'|3[v\xaf\x93\x0b\xc0Z\xb2\x14\x05\xbf%a\xc00\x0c\x9f~Q\x07\x19\xc0'
p91
tp92
bsg82
S'Cell[0].axon[77]'
p93
sI3
I46
tp94
a(F2.0879170799273017
S'Cell[3].dend[26] syn_ = new AmpaNmda(0.5)'
p95
I3
(dp96
g67
F0.16666666666666666
sg68
F2.0
sg69
I8
sg70
g7
(g8
(I0
tp97
g10
tp98
Rp99
(I1
(I3
tp100
g77
I00
S'%\xbc1\x16\x1a\x9e_\xc0\x10\n\x0e`\xd5\x84D\xc0\x11){\xf2h\x044@'
p101
tp102
bsg82
S'Cell[1].axon[42]'
p103
sI8
I16
tp104
a(F2.384357367638583
S'Cell[6].dend[1] syn_ = new ExpSid(0.5)'
p105
I6
(dp106
g67
F0.16666666666666666
sg68
F2.0
sg69
I43
sg70
g7
(g8
(I0
tp107
g10
tp108
Rp109
(I1
(I3
tp110
g77
I00
S'\xe4A\x1bHk\x97B\xc0\x1a\xd5\xfe2\xd9\x91<\xc0V\xf3\x86\xee\xda\xab\x1d@'
p111
tp112
bsg82
S'Cell[8].axon[0]'
p113
sI43
I31
tp114
a(F2.288920367526833
S'Cell[1].dend[69] syn_ = new ExpSid(0.5)'
p115
I1
(dp116
g67
F0.045454545454545456
sg68
F2.0
sg69
I13
sg70
g7
(g8
(I0
tp117
g10
tp118
Rp119
(I1
(I3
tp120
g77
I00
S's\xf844f-O@\xe5+\xd3\x8cn\xafP\xc0\xaf\xcd\xd1T\x12\x180\xc0'
p121
tp122
bsg82
S'Cell[2].axon[3]'
p123
sI13
I6
tp124
a(F1.3218368871580701
S'Cell[4].dend[26] syn_ = new ExpSid(0.166666666667)'
p125
I4
(dp126
g67
F0.22727272727272727
sg68
F2.0
sg69
I13
sg70
g7
(g8
(I0
tp127
g10
tp128
Rp129
(I1
(I3
tp130
g77
I00
S'\xd2\x01\xf4\x7f]\x89S@\xa2\xdd\x08\xa3\xe0\xbf9\xc0\x00\x00\x00\xa0Ga*\xc0'
p131
tp132
bsg82
S'Cell[2].axon[3]'
p133
sI13
I21
tp134
a(F1.7599011405446614
S'Cell[2].dend[25] syn_ = new ExpSid(0.166666666667)'
p135
I2
(dp136
g67
F0.49999999999999994
sg68
F2.0
sg69
I13
sg70
g7
(g8
(I0
tp137
g10
tp138
Rp139
(I1
(I3
tp140
g77
I00
S'\xe6U\xad\xd8j\t8\xc0F\x9a\x16%\x8a\x1dR\xc0\x00\x00\x00\x80=\x8a5\xc0'
p141
tp142
bsg82
S'Cell[2].axon[12]'
p143
sI13
I11
tp144
a(F2.1665322617308327
S'Cell[9].apic[13] syn_ = new ExpSid(0.5)'
p145
I9
(dp146
g67
F0.5
sg68
F2.0
sg69
I13
sg70
g7
(g8
(I0
tp147
g10
tp148
Rp149
(I1
(I3
tp150
g77
I00
S'\x95\x0bIba\xf8N@\xbe)oc\xcc\xe6i\xc0\xec\xe5\x1cX\x85]\xaa\xbf'
p151
tp152
bsg82
S'Cell[2].axon[28]'
p153
sI13
I46
tp154
a(F2.360549538906285
S'Cell[8].dend[13] syn_ = new AmpaNmda(0.5)'
p155
I8
(dp156
g67
F0.5
sg68
F2.0
sg69
I18
sg70
g7
(g8
(I0
tp157
g10
tp158
Rp159
(I1
(I3
tp160
g77
I00
S"\xb6'5\x95\xa3\xc42@\xe2p\xb8\x83\xa4\x1bY\xc0\xf9@\x9e\xd8J\xb5\x08@"
p161
tp162
bsg82
S'Cell[3].axon[3]'
p163
sI18
I41
tp164
a(F1.8104340657689373
S'Cell[9].apic[46] syn_ = new AmpaNmda(0.5)'
p165
I9
(dp166
g67
F0.2692307692307693
sg68
F2.0
sg69
I18
sg70
g7
(g8
(I0
tp167
g10
tp168
Rp169
(I1
(I3
tp170
g77
I00
S'\xec\xa1\xdfi\xccq\xda\xbf\xf5S\xf6\x10\x18\xd0a\xc0\x00\x00\x00\xe0Q\xb8\x1b\xc0'
p171
tp172
bsg82
S'Cell[3].axon[4]'
p173
sI18
I46
tp174
a(F1.711499925909323
S'Cell[2].dend[42] syn_ = new ExpSid(0.166666666667)'
p175
I2
(dp176
S'seg'
p177
F0.5
sS'hostfrom'
p178
F3.0
sS'gid'
p179
I39
sS'coords'
p180
g7
(g8
(I0
tp181
g10
tp182
Rp183
(I1
(I3
tp184
g14
(S'f8'
p185
I0
I1
tp186
Rp187
(I3
S'<'
p188
NNNI-1
I-1
I0
tp189
bI00
S'\xd1\x8d\xa3^N\xf8\x19@D\x91@\xaa\x8a\xafO\xc0D\xe5]\x12\x95+\xe9\xbf'
p190
tp191
bsS'secnames'
p192
S'Cell[7].axon[0]'
p193
sI39
I11
tp194
a(F2.3350825577388945
S'Cell[2].dend[25] syn_ = new ExpSid(0.833333333333)'
p195
I2
(dp196
g177
F0.30000000000000004
sg178
F3.0
sg179
I39
sg180
g7
(g8
(I0
tp197
g10
tp198
Rp199
(I1
(I3
tp200
g187
I00
S'T\x07rG\xf4X\xe2\xbf\x80\xeb\xe3[S\\[\xc0\x93\xf7`\xb0\xc1\x9fA\xc0'
p201
tp202
bsg192
S'Cell[7].axon[44]'
p203
sI39
I11
tp204
a(F1.1442579024029118
S'Cell[0].dend[2] syn_ = new ExpSid(0.1)'
p205
I0
(dp206
g177
F0.8333333333333333
sg178
F3.0
sg179
I9
sg180
g7
(g8
(I0
tp207
g10
tp208
Rp209
(I1
(I3
tp210
g187
I00
S'\xf4<\x04\xb1j\x0bD@:5;N\xf1r?\xc0\x00\x00\x00\xa0p=,\xc0'
p211
tp212
bsg192
S'Cell[1].axon[20]'
p213
sI9
I1
tp214
a(F1.9747194774868488
S'Cell[9].apic[8] syn_ = new AmpaNmda(0.5)'
p215
I9
(dp216
g177
F0.5
sg178
F3.0
sg179
I44
sg180
g7
(g8
(I0
tp217
g10
tp218
Rp219
(I1
(I3
tp220
g187
I00
S'\x03\xd7\xd2r\x08x:\xc0\x18FH\x88\xa0\xf9m\xc0\xf6\xf0-\xb2\xa3\xa6:@'
p221
tp222
bsg192
S'Cell[8].axon[29]'
p223
sI44
I46
tp224
a(F2.313386967317822
S'Cell[9].apic[35] syn_ = new AmpaNmda(0.166666666667)'
p225
I9
(dp226
g177
F0.5
sg178
F3.0
sg179
I14
sg180
g7
(g8
(I0
tp227
g10
tp228
Rp229
(I1
(I3
tp230
g187
I00
S"\x00\x00\x00\xd0\x99\x99'@\x00\x00\x00 \x85\x13e\xc0\x00\x00\x00\xb0\x1eE!@"
p231
tp232
bsg192
S'Cell[2].axon[7]'
p233
sI14
I46
tp234
a(F2.1703589517049386
S'Cell[1].dend[73] syn_ = new AmpaNmda(0.5)'
p235
I1
(dp236
g177
F0.1
sg178
F3.0
sg179
I24
sg180
g7
(g8
(I0
tp237
g10
tp238
Rp239
(I1
(I3
tp240
g187
I00
S'\x06v&\x06\x88\x17+@\xfc\xcb&&9\xcb%\xc0\x00\x00\x00\xe0Q\xb8#\xc0'
p241
tp242
bsg192
S'Cell[4].axon[0]'
p243
sI24
I6
tp244
a(F2.144881671253913
S'Cell[6].dend[15] syn_ = new ExpSid(0.5)'
p245
I6
(dp246
S'seg'
p247
F0.5
sS'hostfrom'
p248
F4.0
sS'gid'
p249
I35
sS'coords'
p250
g7
(g8
(I0
tp251
g10
tp252
Rp253
(I1
(I3
tp254
g14
(S'f8'
p255
I0
I1
tp256
Rp257
(I3
S'<'
p258
NNNI-1
I-1
I0
tp259
bI00
S"\x8d\xac\t\xe9\xa2'B\xc0\xae6\x1a5\x8a\x0eD\xc0\x10vr|\xad\xf2\x02@"
p260
tp261
bsS'secnames'
p262
S'Cell[6].axon[11]'
p263
sI35
I31
tp264
a(F2.116391766147645
S'Cell[2].dend[41] syn_ = new AmpaNmda(0.5)'
p265
I2
(dp266
g247
F0.13636363636363635
sg248
F4.0
sg249
I40
sg250
g7
(g8
(I0
tp267
g10
tp268
Rp269
(I1
(I3
tp270
g257
I00
S'\xfe\xd4`\xae~6\xf7?KO\xb5\x88\xfeFK\xc08\xd0\xceH8\x922\xc0'
p271
tp272
bsg262
S'Cell[7].axon[16]'
p273
sI40
I11
tp274
a(F1.3616373072497234
S'Cell[1].dend[52] syn_ = new AmpaNmda(0.0714285714286)'
p275
I1
(dp276
g247
F0.22727272727272727
sg248
F4.0
sg249
I40
sg250
g7
(g8
(I0
tp277
g10
tp278
Rp279
(I1
(I3
tp280
g257
I00
S'\xf1\xed\xd9\xee\xc49\x11\xc0\x87\x00\xa3\xe8\xdf\xdaB\xc0\x90\xc5n\xde\tI6\xc0'
p281
tp282
bsg262
S'Cell[7].axon[16]'
p283
sI40
I6
tp284
a(F1.6806095868898623
S'Cell[1].apic[66] syn_ = new AmpaNmda(0.1)'
p285
I1
(dp286
g247
F0.30000000000000004
sg248
F4.0
sg249
I40
sg250
g7
(g8
(I0
tp287
g10
tp288
Rp289
(I1
(I3
tp290
g257
I00
S'K\xf2\x1a\xe29\xba=\xc0\x96\xe7\x9dQQ\xebk@)\xcc\xca\xe8"\xd9M\xc0'
p291
tp292
bsg262
S'Cell[7].axon[19]'
p293
sI40
I6
tp294
a(F2.2633206705272113
S'Cell[9].apic[2] syn_ = new ExpSid(0.5)'
p295
I9
(dp296
g247
F0.7857142857142856
sg248
F4.0
sg249
I45
sg250
g7
(g8
(I0
tp297
g10
tp298
Rp299
(I1
(I3
tp300
g257
I00
S'\n\xb9^Sy\x1b/\xc0\x8b?\xadj\xefRn\xc0\x00\x00\x00\x80\xc2\xb5<@'
p301
tp302
bsg262
S'Cell[8].axon[1]'
p303
sI45
I46
tp304
a(F1.2051959942741262
S'Cell[1].dend[69] syn_ = new ExpSid(0.3)'
p305
I1
(dp306
g247
F0.5
sg248
F4.0
sg249
I25
sg250
g7
(g8
(I0
tp307
g10
tp308
Rp309
(I1
(I3
tp310
g257
I00
S'\xcc\xf7\x1a`U\xd2F@Q\xe9\x08\xe3\x1f]F\xc0\x00\x00\x00\xa0\x99\x99-\xc0'
p311
tp312
bsg262
S'Cell[4].axon[0]'
p313
sI25
I6
tp314
a(F2.176575767600802
S'Cell[1].dend[49] syn_ = new AmpaNmda(0.3)'
p315
I1
(dp316
g247
F0.16666666666666666
sg248
F4.0
sg249
I30
sg250
g7
(g8
(I0
tp317
g10
tp318
Rp319
(I1
(I3
tp320
g257
I00
S'C#K\xf9 \x0e%\xc0\xcc\x19\x92\x16\x8f"D\xc0\xb0 _\t&\x1f/\xc0'
p321
tp322
bsg262
S'Cell[5].axon[0]'
p323
sI30
I6
tp324
a(F1.364112065200854
S'Cell[7].dend[5] syn_ = new AmpaNmda(0.1)'
p325
I7
(dp326
g247
F0.5
sg248
F4.0
sg249
I30
sg250
g7
(g8
(I0
tp327
g10
tp328
Rp329
(I1
(I3
tp330
g257
I00
S'E!\xc8\xeb\xa2\xb0&\xc0L\xd0\x14\x9d\n\xd6O\xc0\xd4\x8cc\xfe,l5\xc0'
p331
tp332
bsg262
S'Cell[5].axon[0]'
p333
sI30
I36
tp334
a.