(lp0
(F2.4285758504240764
S'Cell[6].dend[42] syn_ = new FastInhib(0.5)'
p1
I6
(dp2
S'seg'
p3
F0.1
sS'hostfrom'
p4
F0.0
sS'gid'
p5
I0
sS'coords'
p6
cnumpy.core.multiarray
_reconstruct
p7
(cnumpy
ndarray
p8
(I0
tp9
S'b'
p10
tp11
Rp12
(I1
(I3
tp13
cnumpy
dtype
p14
(S'f8'
p15
I0
I1
tp16
Rp17
(I3
S'<'
p18
NNNI-1
I-1
I0
tp19
bI00
S'\x9a*\x8e\x0bb\xc1E@w{\xb1\xb1\xf5\xcaC@\xdbXa\xa8\xc6\xa6\xaa?'
p20
tp21
bsS'secnames'
p22
S'Cell[0].axon[136]'
p23
sI0
I24
tp24
a(F1.2296112755009743
S'Cell[2].apic[3] syn_ = new AmpaNmda(0.5)'
p25
I2
(dp26
g3
F0.7
sg4
F0.0
sg5
I0
sg6
g7
(g8
(I0
tp27
g10
tp28
Rp29
(I1
(I3
tp30
g17
I00
S'\x9c\x17i\x93-\xe1^@\xde@b\x91\x93\xf6/@\x00\x00\x00\x80=\n.@'
p31
tp32
bsg22
S'Cell[0].axon[136]'
p33
sI0
I8
tp34
a(F1.6025917293742187
S'Cell[6].dend[29] syn_ = new FastInhib(0.5)'
p35
I6
(dp36
g3
F0.8333333333333333
sg4
F0.0
sg5
I0
sg6
g7
(g8
(I0
tp37
g10
tp38
Rp39
(I1
(I3
tp40
g17
I00
S'\x93\xac\x9d\xde+\x9f;\xc0l\xd1\x03\xe9q\x8bK@H`8\xd3\xfe1\x12\xc0'
p41
tp42
bsg22
S'Cell[0].axon[270]'
p43
sI0
I24
tp44
a(F2.2070027041502174
S'Cell[3].dend[33] syn_ = new FastInhib(0.5)'
p45
I3
(dp46
g3
F0.8333333333333333
sg4
F0.0
sg5
I0
sg6
g7
(g8
(I0
tp47
g10
tp48
Rp49
(I1
(I3
tp50
g17
I00
S'!\xae\xcc\x0c\xcc\x12F@*\xe8w\xa6>\xaeT@z&\xa3\xe1\x16W\x1e\xc0'
p51
tp52
bsg22
S'Cell[0].axon[279]'
p53
sI0
I12
tp54
a(F2.265458475094964
S'Cell[7].apic[6] syn_ = new AmpaNmda(0.5)'
p55
I7
(dp56
g3
F0.16666666666666666
sg4
F0.0
sg5
I0
sg6
g7
(g8
(I0
tp57
g10
tp58
Rp59
(I1
(I3
tp60
g17
I00
S'\xda:\xedh\xd5\x93!@y#\x9eV\xa0\xd6]@\xbdn\xa4\x80\x99\xdb\x18\xc0'
p61
tp62
bsg22
S'Cell[0].axon[333]'
p63
sI0
I28
tp64
a(F0.9935452767237062
S'Cell[7].apic[31] syn_ = new AmpaNmda(0.166666666667)'
p65
I7
(dp66
g3
F0.5
sg4
F0.0
sg5
I0
sg6
g7
(g8
(I0
tp67
g10
tp68
Rp69
(I1
(I3
tp70
g17
I00
S'\xd9\xab\xf4D\xbe\xdf&\xc0e;\xee\xe7?\x03^@\xcc\x942d9\xe5\x10\xc0'
p71
tp72
bsg22
S'Cell[0].axon[343]'
p73
sI0
I28
tp74
a(F2.3181918387938376
S'Cell[6].dend[20] syn_ = new FastInhib(0.166666666667)'
p75
I6
(dp76
g3
F0.8333333333333333
sg4
F0.0
sg5
I0
sg6
g7
(g8
(I0
tp77
g10
tp78
Rp79
(I1
(I3
tp80
g17
I00
S'<\xd5\xdcJ\xf7K9@X!\x13\xb4\x90\x92d@\xf2E\xde?H~\x1e\xc0'
p81
tp82
bsg22
S'Cell[0].axon[344]'
p83
sI0
I24
tp84
a(F2.13650805139542
S'Cell[7].apic[38] syn_ = new AmpaNmda(0.5)'
p85
I7
(dp86
g3
F0.5
sg4
F0.0
sg5
I0
sg6
g7
(g8
(I0
tp87
g10
tp88
Rp89
(I1
(I3
tp90
g17
I00
S'\xe5\x94\xe2_\x11\xdcP\xc0\xb7\xf5\xe4\x9c\xc3Z`@P\n\xcdE\xb1\\\x19\xc0'
p91
tp92
bsg22
S'Cell[0].axon[369]'
p93
sI0
I28
tp94
a(F2.2575059788650833
S'Cell[0].dend[35] syn_ = new FastInhib(0.5)'
p95
I0
(dp96
g3
F0.2777777777777778
sg4
F0.0
sg5
I32
sg6
g7
(g8
(I0
tp97
g10
tp98
Rp99
(I1
(I3
tp100
g17
I00
S'SdyP\xac\x80L@\xc9|\x7fg\n\x80:\xc0\x7f\xfc\xcb\xc3\x15\x19!\xc0'
p101
tp102
bsg22
S'Cell[8].axon[38]'
p103
sI32
I0
tp104
a(F2.0879170799273017
S'Cell[4].dend[26] syn_ = new AmpaNmda(0.5)'
p105
I4
(dp106
g3
F0.16666666666666666
sg4
F0.0
sg5
I8
sg6
g7
(g8
(I0
tp107
g10
tp108
Rp109
(I1
(I3
tp110
g17
I00
S'%\xbc1\x16\x1a\x9e_\xc0\x10\n\x0e`\xd5\x84D\xc0\x11){\xf2h\x044@'
p111
tp112
bsg22
S'Cell[2].axon[42]'
p113
sI8
I16
tp114
a(F1.4192626810131126
S'Cell[1].apic[4] syn_ = new AmpaNmda(0.5)'
p115
I1
(dp116
g3
F0.8333333333333333
sg4
F0.0
sg5
I12
sg6
g7
(g8
(I0
tp117
g10
tp118
Rp119
(I1
(I3
tp120
g17
I00
S'^}\x10SfvP@\x1e\x10\xac\x93\x86\xa6=@\xb7\x1d2\x10ZZ\xd3?'
p121
tp122
bsg22
S'Cell[3].axon[253]'
p123
sI12
I4
tp124
a(F2.292218446685149
S'Cell[4].apic[62] syn_ = new AmpaNmda(0.5)'
p125
I4
(dp126
g3
F0.5
sg4
F0.0
sg5
I12
sg6
g7
(g8
(I0
tp127
g10
tp128
Rp129
(I1
(I3
tp130
g17
I00
S'n\x11#u\xc1\xeeM@\xf8{\xc8iV\x06g@\x00\x00\x00 \\\x8f\xf6?'
p131
tp132
bsg22
S'Cell[3].axon[325]'
p133
sI12
I16
tp134
a(F0.9657680118448324
S'Cell[0].dend[46] syn_ = new FastInhib(0.833333333333)'
p135
I0
(dp136
g3
F0.16666666666666666
sg4
F0.0
sg5
I12
sg6
g7
(g8
(I0
tp137
g10
tp138
Rp139
(I1
(I3
tp140
g17
I00
S"\xdfOZCT@A@\xac\x9d\xf8\xa6\xb0\xdc6\xc0)'\x18S\x13\xca7\xc0"
p141
tp142
bsg22
S'Cell[3].axon[382]'
p143
sI12
I0
tp144
a(F2.375115361315017
S'Cell[0].dend[6] syn_ = new FastInhib(0.0714285714286)'
p145
I0
(dp146
g3
F0.16666666666666666
sg4
F0.0
sg5
I12
sg6
g7
(g8
(I0
tp147
g10
tp148
Rp149
(I1
(I3
tp150
g17
I00
S'\xe8\xe1#Pu\x05\x1d@`\xe7\x8c6\x8f\xcf4@\x00\x00\x00\x00)\\(\xc0'
p151
tp152
bsg22
S'Cell[3].axon[443]'
p153
sI12
I0
tp154
a(F1.0658694067787053
S'Cell[7].dend[31] syn_ = new AmpaNmda(0.5)'
p155
I7
(dp156
g3
F0.5
sg4
F0.0
sg5
I12
sg6
g7
(g8
(I0
tp157
g10
tp158
Rp159
(I1
(I3
tp160
g17
I00
S'\xdd\x98\x85QM\x07M@\x86M\x93x)\x85Y@\xb3\x8d\xc2\xd4\xdf\xf72\xc0'
p161
tp162
bsg22
S'Cell[3].axon[495]'
p163
sI12
I28
tp164
a(F2.491053836320248
S'Cell[8].apic[22] syn_ = new AmpaNmda(0.1)'
p165
I8
(dp166
g3
F0.8333333333333333
sg4
F0.0
sg5
I12
sg6
g7
(g8
(I0
tp167
g10
tp168
Rp169
(I1
(I3
tp170
g17
I00
S'\x03\xaa,x\xfa)P@\xb0\xb8K\x00\xea\xe8Z@\x000\xa8\xbe\xee\xb1$\xc0'
p171
tp172
bsg22
S'Cell[3].axon[495]'
p173
sI12
I32
tp174
a(F0.9717913895920957
S'Cell[9].dend[32] syn_ = new FastInhib(0.1)'
p175
I9
(dp176
g3
F0.5
sg4
F0.0
sg5
I16
sg6
g7
(g8
(I0
tp177
g10
tp178
Rp179
(I1
(I3
tp180
g17
I00
S'\x00\x00\x00\xd8\xa3pG\xc0\x00\x00\x00\xe0z\x94(\xc0\x00\x00\x00@\n\xd7\x0f@'
p181
tp182
bsg22
S'Cell[4].soma[0]'
p183
sI16
I36
tp184
a(F2.1518165381135885
S'Cell[1].dend[15] syn_ = new AmpaNmda(0.7)'
p185
I1
(dp186
g3
F0.5
sg4
F0.0
sg5
I24
sg6
g7
(g8
(I0
tp187
g10
tp188
Rp189
(I1
(I3
tp190
g17
I00
S'(yed?g@\xc0\x9ej#\x83\xae/P\xc0\x00\x00\x00@3\xb3+\xc0'
p191
tp192
bsg22
S'Cell[6].axon[78]'
p193
sI24
I4
tp194
a(F2.465602501797158
S'Cell[9].dend[14] syn_ = new FastInhib(0.0555555555556)'
p195
I9
(dp196
g3
F0.5
sg4
F0.0
sg5
I24
sg6
g7
(g8
(I0
tp197
g10
tp198
Rp199
(I1
(I3
tp200
g17
I00
S'\xc9\xe7\xe3\xcf\xcb\xf0C\xc0\x8c\x05\xca\x83\xe4_H@\x00\x00\x00 \xae\xc7"\xc0'
p201
tp202
bsg22
S'Cell[6].axon[90]'
p203
sI24
I36
tp204
a(F1.6925783769291616
S'Cell[7].apic[32] syn_ = new AmpaNmda(0.5)'
p205
I7
(dp206
g3
F0.5
sg4
F0.0
sg5
I24
sg6
g7
(g8
(I0
tp207
g10
tp208
Rp209
(I1
(I3
tp210
g17
I00
S'pmI\x15)LB\xc0\xb26M&\xf0\xe9Y@\xb8\x19\xd48\xd2\xff\x18\xc0'
p211
tp212
bsg22
S'Cell[6].axon[94]'
p213
sI24
I28
tp214
a(F2.174118197081006
S'Cell[0].dend[63] syn_ = new FastInhib(0.166666666667)'
p215
I0
(dp216
g3
F0.5
sg4
F0.0
sg5
I24
sg6
g7
(g8
(I0
tp217
g10
tp218
Rp219
(I1
(I3
tp220
g17
I00
S'z\xd1n\xdd\xaf0\x19\xc0,\x90\xbc\xf2\x8c\xa8D\xc0\xfb\x08O\x92\x81\x015\xc0'
p221
tp222
bsg22
S'Cell[6].axon[135]'
p223
sI24
I0
tp224
a(F1.8583272922001433
S'Cell[1].apic[14] syn_ = new AmpaNmda(0.5)'
p225
I1
(dp226
g3
F0.3571428571428571
sg4
F0.0
sg5
I24
sg6
g7
(g8
(I0
tp227
g10
tp228
Rp229
(I1
(I3
tp230
g17
I00
S'\xd3\xd39%\x18%B@\xe4\xf6\xe2\xd5\xfc\x9fS@7\xe6P@\xc4t.\xc0'
p231
tp232
bsg22
S'Cell[6].axon[226]'
p233
sI24
I4
tp234
a(F1.790017226722785
S'Cell[1].apic[28] syn_ = new AmpaNmda(0.5)'
p235
I1
(dp236
g3
F0.5
sg4
F0.0
sg5
I24
sg6
g7
(g8
(I0
tp237
g10
tp238
Rp239
(I1
(I3
tp240
g17
I00
S'\x00\x00\x00\xb0GQH@\x00\x00\x00\xe0\xa3\xbcb@\x00\x00\x00 \\\x8f/\xc0'
p241
tp242
bsg22
S'Cell[6].axon[335]'
p243
sI24
I4
tp244
a(F2.4492915929923473
S'Cell[7].apic[9] syn_ = new AmpaNmda(0.833333333333)'
p245
I7
(dp246
g3
F0.8999999999999999
sg4
F0.0
sg5
I24
sg6
g7
(g8
(I0
tp247
g10
tp248
Rp249
(I1
(I3
tp250
g17
I00
S'U\xf8&ln\x065@\xc2\xc3Z\xce\xfdkl@\x00\x00\x00\x80\x14\xae\x16\xc0'
p251
tp252
bsg22
S'Cell[6].axon[337]'
p253
sI24
I28
tp254
a(F1.5486369528585704
S'Cell[3].dend[36] syn_ = new FastInhib(0.833333333333)'
p255
I3
(dp256
g3
F0.7
sg4
F0.0
sg5
I24
sg6
g7
(g8
(I0
tp257
g10
tp258
Rp259
(I1
(I3
tp260
g17
I00
S'\x18\xf1\x8d\xaf\x8bpE@j\xec\x9a\xa4\xeepF\xc0\xa33\xf2\x15\n\x8d3\xc0'
p261
tp262
bsg22
S'Cell[6].axon[361]'
p263
sI24
I12
tp264
a(F1.0405402852383026
S'Cell[2].apic[21] syn_ = new AmpaNmda(0.5)'
p265
I2
(dp266
g3
F0.5
sg4
F0.0
sg5
I36
sg6
g7
(g8
(I0
tp267
g10
tp268
Rp269
(I1
(I3
tp270
g17
I00
S'E\x0b\xcb>\x04\xc3 @JLI\xa5\xf1\x8e\\@\x05df\xe2;\xe27@'
p271
tp272
bsg22
S'Cell[9].axon[172]'
p273
sI36
I8
tp274
a(F2.4051386849071914
S'Cell[4].dend[65] syn_ = new ExpSid(0.7)'
p275
I4
(dp276
S'seg'
p277
F0.5
sS'hostfrom'
p278
F1.0
sS'gid'
p279
I1
sS'coords'
p280
g7
(g8
(I0
tp281
g10
tp282
Rp283
(I1
(I3
tp284
g14
(S'f8'
p285
I0
I1
tp286
Rp287
(I3
S'<'
p288
NNNI-1
I-1
I0
tp289
bI00
S'\xdc\xc7\xd4\x14\x0cSG@\xe6\xad\x80\x0f<\x07Q\xc0\x02\xf1 R\x9c]\x1c@'
p290
tp291
bsS'secnames'
p292
S'Cell[0].axon[4]'
p293
sI1
I16
tp294
a(F2.4491432496970478
S'Cell[8].apic[1] syn_ = new ExpSid(0.5)'
p295
I8
(dp296
g277
F0.045454545454545456
sg278
F1.0
sg279
I5
sg280
g7
(g8
(I0
tp297
g10
tp298
Rp299
(I1
(I3
tp300
g287
I00
S'\xdd9\x8b\xf6\x10uF@W\xad\xd7@O\xb0S@\x00\x00\x00\xc0\x1e\x85\xf7\xbf'
p301
tp302
bsg292
S'Cell[1].axon[70]'
p303
sI5
I32
tp304
a(F2.169285838467339
S'Cell[0].dend[26] syn_ = new FastInhib(0.3)'
p305
I0
(dp306
g277
F0.5
sg278
F1.0
sg279
I33
sg280
g7
(g8
(I0
tp307
g10
tp308
Rp309
(I1
(I3
tp310
g287
I00
S'\xa4\x97\xebb\xc0\x18*@=\x03\x94\x11\xe5$W@Sv\xbc\x85\xbc\xc1\x12\xc0'
p311
tp312
bsg292
S'Cell[8].axon[258]'
p313
sI33
I0
tp314
a(F1.7707457925112249
S'Cell[7].apic[3] syn_ = new ExpSid(0.5)'
p315
I7
g306
I33
I28
tp316
a(F2.415074461187956
S'Cell[7].apic[34] syn_ = new ExpSid(0.166666666667)'
p317
I7
g306
I33
I28
tp318
a(F2.3493229512018274
S'Cell[2].dend[65] syn_ = new ExpSid(0.5)'
p319
I2
(dp320
g277
F0.16666666666666666
sg278
F1.0
sg279
I9
sg280
g7
(g8
(I0
tp321
g10
tp322
Rp323
(I1
(I3
tp324
g287
I00
S'\x00\x00\x00\x80\xf7(2\xc0\x8a\xda\xdb^\xf0\xe3O\xc0jo4\xf0}t\xda?'
p325
tp326
bsg292
S'Cell[2].axon[77]'
p327
sI9
I8
tp328
a(F2.302172922639442
S'Cell[6].dend[52] syn_ = new FastInhib(0.5)'
p329
I6
(dp330
g277
F0.16666666666666666
sg278
F1.0
sg279
I9
sg280
g7
(g8
(I0
tp331
g10
tp332
Rp333
(I1
(I3
tp334
g287
I00
S'\x00\x00\x00\xa0\x1f\xa5D\xc0\x9f\xf80}\x02=M\xc0\x00\x00\x00\x80\xeb\xd1$\xc0'
p335
tp336
bsg292
S'Cell[2].axon[80]'
p337
sI9
I24
tp338
a(F2.0797430328753994
S'Cell[3].dend[27] syn_ = new FastInhib(0.166666666667)'
p339
I3
(dp340
g277
F0.8333333333333333
sg278
F1.0
sg279
I9
sg280
g7
(g8
(I0
tp341
g10
tp342
Rp343
(I1
(I3
tp344
g287
I00
S'\x9a\xfa0F\xe0\x01M@b(\x93\xb8\xea\xac;@8\x18!Pp#/\xc0'
p345
tp346
bsg292
S'Cell[2].axon[176]'
p347
sI9
I12
tp348
a(F1.9451373288656018
S'Cell[7].apic[28] syn_ = new ExpSid(0.166666666667)'
p349
I7
(dp350
g277
F0.5
sg278
F1.0
sg279
I9
sg280
g7
(g8
(I0
tp351
g10
tp352
Rp353
(I1
(I3
tp354
g287
I00
S'\xb4\xfa\x87]\xe5G3@\xab\xa0\xb6\xd8\xb2\xac_@\x08\n{\xe8\x85\xaf\x0c\xc0'
p355
tp356
bsg292
S'Cell[2].axon[183]'
p357
sI9
I28
tp358
a(F2.480242514162585
S'Cell[1].apic[17] syn_ = new ExpSid(0.5)'
p359
I1
(dp360
g277
F0.16666666666666666
sg278
F1.0
sg279
I9
sg280
g7
(g8
(I0
tp361
g10
tp362
Rp363
(I1
(I3
tp364
g287
I00
S'I&\xfaJ\x08w:@P\xbe\xcd1\xcd\x13U@\xad \xd0\xfb\xfb\x00$\xc0'
p365
tp366
bsg292
S'Cell[2].axon[192]'
p367
sI9
I4
tp368
a(F0.9641323098697092
S'Cell[0].dend[4] syn_ = new FastInhib(0.5)'
p369
I0
(dp370
g277
F0.5
sg278
F1.0
sg279
I9
sg280
g7
(g8
(I0
tp371
g10
tp372
Rp373
(I1
(I3
tp374
g287
I00
S'a\xdd\x92\x97(\x166@\xd0\xbf\xce\x02W(V@\x90\x0eb\x19\x96\xee\r@'
p375
tp376
bsg292
S'Cell[2].axon[192]'
p377
sI9
I0
tp378
a(F1.447268026539381
S'Cell[9].dend[20] syn_ = new FastInhib(0.5)'
p379
I9
(dp380
g277
F0.1
sg278
F1.0
sg279
I9
sg280
g7
(g8
(I0
tp381
g10
tp382
Rp383
(I1
(I3
tp384
g287
I00
S'H\xd9\x90\xd9\x82K;\xc0\xde\x1d\xd4\xce$\x17#\xc0GH\x87r\tr\xda?'
p385
tp386
bsg292
S'Cell[2].axon[248]'
p387
sI9
I36
tp388
a(F2.4953072070386986
S'Cell[6].dend[29] syn_ = new FastInhib(0.833333333333)'
p389
I6
(dp390
g277
F0.5
sg278
F1.0
sg279
I9
sg280
g7
(g8
(I0
tp391
g10
tp392
Rp393
(I1
(I3
tp394
g287
I00
S'\xbc\x94pHb\xd1A\xc0B\xe2\x94\xc3\xd1{Q@\xd4W\xe3\x92\x19\xef\x10\xc0'
p395
tp396
bsg292
S'Cell[2].axon[260]'
p397
sI9
I24
tp398
a(F2.195855265388569
S'Cell[8].apic[28] syn_ = new ExpSid(0.166666666667)'
p399
I8
(dp400
g277
F0.5
sg278
F1.0
sg279
I9
sg280
g7
(g8
(I0
tp401
g10
tp402
Rp403
(I1
(I3
tp404
g287
I00
S'\xa3C\x1a\xc8u\xfdA@L\x1e=\t\xee\nQ@\xc6\r\x03QpM\n\xc0'
p405
tp406
bsg292
S'Cell[2].axon[278]'
p407
sI9
I32
tp408
a(F1.9560531482672374
S'Cell[4].apic[80] syn_ = new ExpSid(0.3)'
p409
I4
(dp410
g277
F0.8333333333333333
sg278
F1.0
sg279
I9
sg280
g7
(g8
(I0
tp411
g10
tp412
Rp413
(I1
(I3
tp414
g287
I00
S'q\xff\xe2q[\xcc\x14\xc0\xb6\xe7\xbf\xcc\t"R@"DgtS\xf2&@'
p415
tp416
bsg292
S'Cell[2].axon[326]'
p417
sI9
I16
tp418
a(F1.7314132880328779
S'Cell[2].dend[3] syn_ = new ExpSid(0.5)'
p419
I2
(dp420
g277
F0.5
sg278
F1.0
sg279
I9
sg280
g7
(g8
(I0
tp421
g10
tp422
Rp423
(I1
(I3
tp424
g287
I00
S'\xc6H\xe3\x8c\xa7\xef@@\xa1\x8a\x85\xc1Z\xc1I\xc0\x86\xa4A,\x1e\x9e#@'
p425
tp426
bsg292
S'Cell[2].axon[340]'
p427
sI9
I8
tp428
a(F2.384707805866366
S'Cell[1].dend[20] syn_ = new ExpSid(0.3)'
p429
I1
(dp430
g277
F0.5
sg278
F1.0
sg279
I13
sg280
g7
(g8
(I0
tp431
g10
tp432
Rp433
(I1
(I3
tp434
g287
I00
S'\xfe\xc9E\xc7\x1e\xa0*@\xcb{\x91&<PS\xc0_\x1e\x9a\x08\x17\xfd\x07@'
p435
tp436
bsg292
S'Cell[3].axon[6]'
p437
sI13
I4
tp438
a(F2.3564911308783105
S'Cell[2].dend[48] syn_ = new ExpSid(0.5)'
p439
I2
(dp440
g277
F0.6111111111111112
sg278
F1.0
sg279
I21
sg280
g7
(g8
(I0
tp441
g10
tp442
Rp443
(I1
(I3
tp444
g287
I00
S'\x14\xde\x19\xa3\xf3D5@J\x97\x97w\xbb\nS\xc0\xb9\xb5\xf7\x16\x14\xcd\xea?'
p445
tp446
bsg292
S'Cell[5].axon[10]'
p447
sI21
I8
tp448
a(F2.453829455873044
S'Cell[4].dend[10] syn_ = new ExpSid(0.5)'
p449
I4
(dp450
g277
F0.16666666666666666
sg278
F1.0
sg279
I21
sg280
g7
(g8
(I0
tp451
g10
tp452
Rp453
(I1
(I3
tp454
g287
I00
S'\xbe\xe8/\xac\xf5d]\xc0\x00\x00\x00\x00\xd7\xa3\x10\xc0\x92\xc0\x0f.\xe7\x07\x18@'
p455
tp456
bsg292
S'Cell[5].axon[58]'
p457
sI21
I16
tp458
a(F1.2062406372142467
S'Cell[0].dend[65] syn_ = new FastInhib(0.833333333333)'
p459
I0
(dp460
g277
F0.5
sg278
F1.0
sg279
I21
sg280
g7
(g8
(I0
tp461
g10
tp462
Rp463
(I1
(I3
tp464
g287
I00
S'\x08\x0e\x06|\x1cjY\xc0k:\x9c\xa8\x0468@\x90\xce\xfc\x86oQ=\xc0'
p465
tp466
bsg292
S'Cell[5].axon[65]'
p467
sI21
I0
tp468
a(F1.4398275045760671
S'Cell[6].dend[16] syn_ = new FastInhib(0.833333333333)'
p469
I6
(dp470
g277
F0.9444444444444446
sg278
F1.0
sg279
I21
sg280
g7
(g8
(I0
tp471
g10
tp472
Rp473
(I1
(I3
tp474
g287
I00
S'\xfa\xb5\xee^?\x93\x06\xc0\xf3\xd0Xs\xa5\x94Z@\xe1\x98D/J\x9f\x06@'
p475
tp476
bsg292
S'Cell[5].axon[117]'
p477
sI21
I24
tp478
a(F1.3620059750428588
S'Cell[9].dend[27] syn_ = new FastInhib(0.7)'
p479
I9
(dp480
g277
F0.5
sg278
F1.0
sg279
I29
sg280
g7
(g8
(I0
tp481
g10
tp482
Rp483
(I1
(I3
tp484
g287
I00
S"\x14\xb0\xb5\xf5\xb31G\xc0\xfa\xed\xb5\xf2\x14>_\xc07\x84'\x1c\xf6\xde\x17@"
p485
tp486
bsg292
S'Cell[7].axon[17]'
p487
sI29
I36
tp488
a(F2.1684021644559097
S'Cell[6].dend[42] syn_ = new FastInhib(0.7)'
p489
I6
(dp490
S'seg'
p491
F0.5
sS'hostfrom'
p492
F2.0
sS'gid'
p493
I38
sS'coords'
p494
g7
(g8
(I0
tp495
g10
tp496
Rp497
(I1
(I3
tp498
g14
(S'f8'
p499
I0
I1
tp500
Rp501
(I3
S'<'
p502
NNNI-1
I-1
I0
tp503
bI00
S'\x00\x00\x00P\xb8^G@\x00\x00\x00 \x85\xcbK@\x00\x00\x00\x00\x00\x80 \xc0'
p504
tp505
bsS'secnames'
p506
S'Cell[9].soma[0]'
p507
sI38
I24
tp508
a(F1.3298043826081536
S'Cell[3].dend[32] syn_ = new FastInhib(0.5)'
p509
I3
(dp510
g491
F0.16666666666666666
sg492
F2.0
sg493
I38
sg494
g7
(g8
(I0
tp511
g10
tp512
Rp513
(I1
(I3
tp514
g501
I00
S'\xbc\xee\x83\xa3\xf1\x0bH@0\xf5\x0f\xe3\xca\x88?@\xec\x9f\xb7\x0e\xd0\x1a\x17\xc0'
p515
tp516
bsg506
S'Cell[9].axon[0]'
p517
sI38
I12
tp518
a(F1.123428433139982
S'Cell[2].dend[7] syn_ = new AmpaNmda(0.5)'
p519
I2
(dp520
g491
F0.5
sg492
F2.0
sg493
I38
sg494
g7
(g8
(I0
tp521
g10
tp522
Rp523
(I1
(I3
tp524
g501
I00
S"\x1a^-\xb4\x1b\xe7I@}\xe9,\x96}\xc3B\xc0\x08g\xa0\xbd\xf9.'@"
p525
tp526
bsg506
S'Cell[9].axon[1]'
p527
sI38
I8
tp528
a(F2.1612210637530214
S'Cell[6].dend[52] syn_ = new FastInhib(0.5)'
p529
I6
(dp530
g491
F0.5
sg492
F2.0
sg493
I38
sg494
g7
(g8
(I0
tp531
g10
tp532
Rp533
(I1
(I3
tp534
g501
I00
S'`W\xc1\xbf\xf8ID\xc02\xc6\xa7\x16"\xe3N\xc0\x12\xef~\x85`\x9e"\xc0'
p535
tp536
bsg506
S'Cell[9].axon[44]'
p537
sI38
I24
tp538
a(F1.6287668619553175
S'Cell[0].dend[24] syn_ = new FastInhib(0.5)'
p539
I0
(dp540
g491
F0.5
sg492
F2.0
sg493
I6
sg494
g7
(g8
(I0
tp541
g10
tp542
Rp543
(I1
(I3
tp544
g501
I00
S'\xc9\xe8\x08Wqm\x12@\x89\x00?\x14y\xf9p@.xP\x9c\xb1\x18(@'
p545
tp546
bsg506
S'Cell[1].axon[7]'
p547
sI6
I0
tp548
a(F2.345910744750167
S'Cell[2].apic[27] syn_ = new AmpaNmda(0.5)'
p549
I2
(dp550
g491
F0.5
sg492
F2.0
sg493
I6
sg494
g7
(g8
(I0
tp551
g10
tp552
Rp553
(I1
(I3
tp554
g501
I00
S'\x00\x00\x00`\xf5\xe8^@\x00\x00\x00\x00\x00\x04`@\x00\x00\x00@\xe1:1@'
p555
tp556
bsg506
S'Cell[1].axon[51]'
p557
sI6
I8
tp558
a(F2.35803705699987
S'Cell[6].dend[7] syn_ = new FastInhib(0.5)'
p559
I6
(dp560
g491
F0.1
sg492
F2.0
sg493
I6
sg494
g7
(g8
(I0
tp561
g10
tp562
Rp563
(I1
(I3
tp564
g501
I00
S'\xf4\xdb"@\xcf3\'@\x9c\xd0\xb8S\xba\xdbY@\x00\x00\x00\xa0G\xe1\'@'
p565
tp566
bsg506
S'Cell[1].axon[249]'
p567
sI6
I24
tp568
a(F2.061081054601079
S'Cell[6].dend[8] syn_ = new FastInhib(0.5)'
p569
I6
g560
I6
I24
tp570
a(F2.2256074350853297
S'Cell[1].dend[15] syn_ = new AmpaNmda(0.7)'
p571
I1
(dp572
g491
F0.5
sg492
F2.0
sg493
I34
sg494
g7
(g8
(I0
tp573
g10
tp574
Rp575
(I1
(I3
tp576
g501
I00
S'\x14`S\xaf\x81L=\xc0d\xe0X\x0e{-P\xc0\xa7\xb7\xd2\xda\xd3\xe8/\xc0'
p577
tp578
bsg506
S'Cell[8].axon[65]'
p579
sI34
I4
tp580
a(F1.4155009415908546
S'Cell[3].dend[7] syn_ = new FastInhib(0.5)'
p581
I3
(dp582
g491
F0.5
sg492
F2.0
sg493
I18
sg494
g7
(g8
(I0
tp583
g10
tp584
Rp585
(I1
(I3
tp586
g501
I00
S'\xd5\xa1e\xce\xfd?I@d\xbc\x14\x8c\x16\xcf!@\x00\x00\x00\x80\x14\xae\x01@'
p587
tp588
bsg506
S'Cell[4].axon[70]'
p589
sI18
I12
tp590
a(F2.0083805759193316
S'Cell[7].dend[13] syn_ = new AmpaNmda(0.5)'
p591
I7
(dp592
g491
F0.8333333333333333
sg492
F2.0
sg493
I18
sg494
g7
(g8
(I0
tp593
g10
tp594
Rp595
(I1
(I3
tp596
g501
I00
S'\x85T\xcb=\xff\x9eC@%H\x9af\xc1\xedL@\xad\xb0\x98\n\x88\xbaI\xc0'
p597
tp598
bsg506
S'Cell[4].axon[72]'
p599
sI18
I28
tp600
a(F2.19616308955741
S'Cell[6].dend[33] syn_ = new FastInhib(0.5)'
p601
I6
(dp602
g491
F0.5
sg492
F2.0
sg493
I18
sg494
g7
(g8
(I0
tp603
g10
tp604
Rp605
(I1
(I3
tp606
g501
I00
S'\n\x8f~\xb3.\xb7:@|\x00\xef\xd7\xfd\x168@\x8b\xa4n\xfcF\xa0.\xc0'
p607
tp608
bsg506
S'Cell[4].axon[176]'
p609
sI18
I24
tp610
a(F2.3302870150373165
S'Cell[9].dend[0] syn_ = new FastInhib(0.5)'
p611
I9
(dp612
g491
F0.5
sg492
F2.0
sg493
I18
sg494
g7
(g8
(I0
tp613
g10
tp614
Rp615
(I1
(I3
tp616
g501
I00
S'\xcc?J\x01\xd8\xa1E\xc0(`a"f\xd9F@\x16\xe2\xf92\x8e|\x12@'
p617
tp618
bsg506
S'Cell[4].axon[181]'
p619
sI18
I36
tp620
a(F2.2268147982528195
S'Cell[5].dend[7] syn_ = new AmpaNmda(0.5)'
p621
I5
(dp622
g491
F0.1
sg492
F2.0
sg493
I18
sg494
g7
(g8
(I0
tp623
g10
tp624
Rp625
(I1
(I3
tp626
g501
I00
S'%\xac\x9e\x14\xf3_&@\xe2\x07\xb3a>\x18P@8\xd5\x7f\x8d\xd4\x0c\t@'
p627
tp628
bsg506
S'Cell[4].axon[223]'
p629
sI18
I20
tp630
a(F1.563136430134202
S'Cell[7].apic[36] syn_ = new AmpaNmda(0.5)'
p631
I7
(dp632
g491
F0.8999999999999999
sg492
F2.0
sg493
I22
sg494
g7
(g8
(I0
tp633
g10
tp634
Rp635
(I1
(I3
tp636
g501
I00
S'\xf7\x86h\xf7\x1f\x001@\x9a\x9e\x99l\xb6&^@, \xa3\x0b\x99o\x0b\xc0'
p637
tp638
bsg506
S'Cell[5].axon[0]'
p639
sI22
I28
tp640
a(F2.395593013315511
S'Cell[6].dend[21] syn_ = new FastInhib(0.833333333333)'
p641
I6
(dp642
g491
F0.5
sg492
F2.0
sg493
I22
sg494
g7
(g8
(I0
tp643
g10
tp644
Rp645
(I1
(I3
tp646
g501
I00
S'\x00\x00\x00\xe0z\x14@@\x00\x00\x00\x10\xd7\xffd@\x00\x00\x00@33\x16@'
p647
tp648
bsg506
S'Cell[5].axon[2]'
p649
sI22
I24
tp650
a(F1.4176075416724936
S'Cell[6].dend[21] syn_ = new FastInhib(0.5)'
p651
I6
(dp652
g491
F0.16666666666666666
sg492
F2.0
sg493
I22
sg494
g7
(g8
(I0
tp653
g10
tp654
Rp655
(I1
(I3
tp656
g501
I00
S'g2a\xaa\x1et=@\\\xa0\xf1R\x0c\x10e@\xb2\x93\xc1\x9f%4\x06\xc0'
p657
tp658
bsg506
S'Cell[5].axon[4]'
p659
sI22
I24
tp660
a(F2.11521840787638
S'Cell[4].apic[66] syn_ = new AmpaNmda(0.5)'
p661
I4
(dp662
g491
F0.2777777777777778
sg492
F2.0
sg493
I22
sg494
g7
(g8
(I0
tp663
g10
tp664
Rp665
(I1
(I3
tp666
g501
I00
S'\xb7\x1a\x8a\x85W\xaf8\xc0\xc8\xa4h\x89\xcfI\\@p\x1ap\xf1oM!@'
p667
tp668
bsg506
S'Cell[5].axon[6]'
p669
sI22
I16
tp670
a(F1.9260162456919825
S'Cell[7].dend[2] syn_ = new AmpaNmda(0.5)'
p671
I7
(dp672
g491
F0.5
sg492
F2.0
sg493
I26
sg494
g7
(g8
(I0
tp673
g10
tp674
Rp675
(I1
(I3
tp676
g501
I00
S'\x00\x00\x00\x80\xebQ\x00@\x00\x00\x00@\xe1zP@\x00\x00\x00\x00\xd7\xa3\x19@'
p677
tp678
bsg506
S'Cell[6].soma[0]'
p679
sI26
I28
tp680
a(F2.3545321604110687
S'Cell[2].dend[33] syn_ = new AmpaNmda(0.833333333333)'
p681
I2
(dp682
g491
F0.5
sg492
F2.0
sg493
I26
sg494
g7
(g8
(I0
tp683
g10
tp684
Rp685
(I1
(I3
tp686
g501
I00
S'\xaf\xd8\xeaFt~0\xc0o=+\x81\x10\xf5b\xc0\x00\x00\x00\x00\x00\x00\x1e@'
p687
tp688
bsg506
S'Cell[6].axon[37]'
p689
sI26
I8
tp690
a(F1.5729165296345358
S'Cell[4].apic[60] syn_ = new AmpaNmda(0.833333333333)'
p691
I4
(dp692
g491
F0.5
sg492
F2.0
sg493
I30
sg494
g7
(g8
(I0
tp693
g10
tp694
Rp695
(I1
(I3
tp696
g501
I00
S'\xfc\x00\x9c\x0b\x0f\xc0E@4\xea\x8dIY\xfde@\x00\x00\x00\x80=\n\x14@'
p697
tp698
bsg506
S'Cell[7].axon[6]'
p699
sI30
I16
tp700
a(F1.6124810544581198
S'Cell[2].apic[1] syn_ = new AmpaNmda(0.1)'
p701
I2
(dp702
g491
F0.5
sg492
F2.0
sg493
I30
sg494
g7
(g8
(I0
tp703
g10
tp704
Rp705
(I1
(I3
tp706
g501
I00
S'\xb1\xe7\xecm\x04\x87E@ Fg\x90\xb99.@\x1aXl\x1c\xef\xb9"@'
p707
tp708
bsg506
S'Cell[7].axon[99]'
p709
sI30
I8
tp710
a(F1.001136201455545
S'Cell[2].dend[10] syn_ = new AmpaNmda(0.1)'
p711
I2
(dp712
g491
F0.7
sg492
F2.0
sg493
I30
sg494
g7
(g8
(I0
tp713
g10
tp714
Rp715
(I1
(I3
tp716
g501
I00
S'\xfa\x96,\xc8\xce$J@\xbc\x86\xb8\xeb\x0b\x90M\xc0\xbcT\x8b_\x0f\x9e(@'
p717
tp718
bsg506
S'Cell[7].axon[100]'
p719
sI30
I8
tp720
a(F1.5374025673077272
S'Cell[5].dend[2] syn_ = new AmpaNmda(0.5)'
p721
I5
(dp722
g491
F0.16666666666666666
sg492
F2.0
sg493
I30
sg494
g7
(g8
(I0
tp723
g10
tp724
Rp725
(I1
(I3
tp726
g501
I00
S'\x00x\x90E\xb6\xa7"@\xeby\xa1\xb8\x03\xddL@\xf1\xc1[\xd2\x1d\xf9%@'
p727
tp728
bsg506
S'Cell[7].axon[102]'
p729
sI30
I20
tp730
a(F2.351251088645852
S'Cell[1].apic[0] syn_ = new AmpaNmda(0.5)'
p731
I1
(dp732
g491
F0.8333333333333333
sg492
F2.0
sg493
I30
sg494
g7
(g8
(I0
tp733
g10
tp734
Rp735
(I1
(I3
tp736
g501
I00
S' \xe0\x1a\x08\xbd\x05P@\xef\x8e\x88xG!$@\x8e4\xeb{\x0bf\xf5\xbf'
p737
tp738
bsg506
S'Cell[7].axon[131]'
p739
sI30
I4
tp740
a(F1.6114272002234198
S'Cell[5].dend[19] syn_ = new AmpaNmda(0.833333333333)'
p741
I5
(dp742
g491
F0.16666666666666666
sg492
F2.0
sg493
I30
sg494
g7
(g8
(I0
tp743
g10
tp744
Rp745
(I1
(I3
tp746
g501
I00
S'\x0e\xf7\x00\x0b#\xf40@\xf3\xb1X\xe6b\x9dm@\n!\xf5\xb1\x1e%A@'
p747
tp748
bsg506
S'Cell[7].axon[162]'
p749
sI30
I20
tp750
a(F1.8098246554582367
S'Cell[6].dend[14] syn_ = new FastInhib(0.214285714286)'
p751
I6
(dp752
g491
F0.5
sg492
F2.0
sg493
I30
sg494
g7
(g8
(I0
tp753
g10
tp754
Rp755
(I1
(I3
tp756
g501
I00
S'\xce\xc8\x12K\r\x07B@\x8ao.\xa6\xedOZ@\xf4\xc2\x9b\xe9\xbc\xc17\xc0'
p757
tp758
bsg506
S'Cell[7].axon[216]'
p759
sI30
I24
tp760
a(F2.421309983167831
S'Cell[9].dend[12] syn_ = new FastInhib(0.5)'
p761
I9
(dp762
g491
F0.05555555555555555
sg492
F2.0
sg493
I30
sg494
g7
(g8
(I0
tp763
g10
tp764
Rp765
(I1
(I3
tp766
g501
I00
S'c\xe2\x8d\x0b \x15P\xc0\xc3E6\x06\xd3\xadR@\x84\xfc\x89}\xc4A4@'
p767
tp768
bsg506
S'Cell[7].axon[275]'
p769
sI30
I36
tp770
a(F2.0532381768482373
S'Cell[2].dend[42] syn_ = new ExpSid(0.5)'
p771
I2
(dp772
S'seg'
p773
F0.5
sS'hostfrom'
p774
F3.0
sS'gid'
p775
I35
sS'coords'
p776
g7
(g8
(I0
tp777
g10
tp778
Rp779
(I1
(I3
tp780
g14
(S'f8'
p781
I0
I1
tp782
Rp783
(I3
S'<'
p784
NNNI-1
I-1
I0
tp785
bI00
S'u\xb5\x8c\x829\xf00@\xf7j\xf44\x99XQ\xc0\xa8\xdd\xee\x1b\xde~\xd7\xbf'
p786
tp787
bsS'secnames'
p788
S'Cell[8].axon[5]'
p789
sI35
I8
tp790
a(F1.6284923543838064
S'Cell[7].dend[7] syn_ = new ExpSid(0.3)'
p791
I7
(dp792
g773
F0.5
sg774
F3.0
sg775
I3
sg776
g7
(g8
(I0
tp793
g10
tp794
Rp795
(I1
(I3
tp796
g783
I00
S'\xc5U\x83s(<5\xc0n\xffk=\xbb\xb0W@\x00\x00\x00\x00\x00\x00\xf0\xbf'
p797
tp798
bsg788
S'Cell[0].axon[51]'
p799
sI3
I28
tp800
a(F2.4290743556793473
S'Cell[0].dend[45] syn_ = new FastInhib(0.0555555555556)'
p801
I0
(dp802
g773
F0.7
sg774
F3.0
sg775
I3
sg776
g7
(g8
(I0
tp803
g10
tp804
Rp805
(I1
(I3
tp806
g783
I00
S'dN\xc2\n\x1b\xa9!\xc0\xb4\x0f`p\x10I;\xc0\x00\x00\x00\xa0Ga$\xc0'
p807
tp808
bsg788
S'Cell[0].axon[201]'
p809
sI3
I0
tp810
a(F2.3320460675594523
S'Cell[6].dend[47] syn_ = new FastInhib(0.166666666667)'
p811
I6
(dp812
g773
F0.8333333333333333
sg774
F3.0
sg775
I3
sg776
g7
(g8
(I0
tp813
g10
tp814
Rp815
(I1
(I3
tp816
g783
I00
S'i]\xa6+\x97\x9b9\xc0V\x99\xe7C\xfdZE\xc0\x00\x00\x00\x00\x00\x00\xf8\xbf'
p817
tp818
bsg788
S'Cell[0].axon[255]'
p819
sI3
I24
tp820
a(F2.2316775182984787
S'Cell[6].dend[52] syn_ = new FastInhib(0.166666666667)'
p821
I6
(dp822
g773
F0.5
sg774
F3.0
sg775
I3
sg776
g7
(g8
(I0
tp823
g10
tp824
Rp825
(I1
(I3
tp826
g783
I00
S'\x00\x00\x0004\xd3:\xc0\x00\x00\x0003\xa3J\xc0\x00\x00\x80fff\n\xc0'
p827
tp828
bsg788
S'Cell[0].axon[261]'
p829
sI3
I24
tp830
a(F1.3507914074501006
S'Cell[2].dend[10] syn_ = new ExpSid(0.9)'
p831
I2
(dp832
g773
F0.26
sg774
F3.0
sg775
I11
sg776
g7
(g8
(I0
tp833
g10
tp834
Rp835
(I1
(I3
tp836
g783
I00
S'\x17\xb2\xcd\xc0q\x81^@\xf4+\xf1\xb7i\xbda\xc0\xe2\xf0\xd1*\xab\xe62@'
p837
tp838
bsg788
S'Cell[2].axon[21]'
p839
sI11
I8
tp840
a(F1.8456214060848852
S'Cell[0].dend[40] syn_ = new FastInhib(0.642857142857)'
p841
I0
(dp842
g773
F0.5
sg774
F3.0
sg775
I15
sg776
g7
(g8
(I0
tp843
g10
tp844
Rp845
(I1
(I3
tp846
g783
I00
S'\x00\xfcT\xb7\x83\x08-@^(L\xce_>\\\xc0A\x11h\x1ek\x19!\xc0'
p847
tp848
bsg788
S'Cell[3].axon[100]'
p849
sI15
I0
tp850
a(F2.0818838053744906
S'Cell[1].dend[22] syn_ = new ExpSid(0.5)'
p851
I1
(dp852
g773
F0.029411764705882353
sg774
F3.0
sg775
I15
sg776
g7
(g8
(I0
tp853
g10
tp854
Rp855
(I1
(I3
tp856
g783
I00
S'\xca\x1a1\xcf\xa6C5\xc0\xa4\xce\x92\x83m\x8dK\xc0J\xbb\xfdZ\x8d\x82-\xc0'
p857
tp858
bsg788
S'Cell[3].axon[174]'
p859
sI15
I4
tp860
a(F1.4730347978188665
S'Cell[8].dend[6] syn_ = new ExpSid(0.1)'
p861
I8
(dp862
g773
F0.5
sg774
F3.0
sg775
I15
sg776
g7
(g8
(I0
tp863
g10
tp864
Rp865
(I1
(I3
tp866
g783
I00
S')\x04\xb2r\x8c+\x1b@]+\xe8]\x86\xe34@\x00\x00\x00@\xe1:8\xc0'
p867
tp868
bsg788
S'Cell[3].axon[239]'
p869
sI15
I32
tp870
a(F0.6521817792865326
S'Cell[7].dend[32] syn_ = new ExpSid(0.5)'
p871
I7
(dp872
g773
F0.5
sg774
F3.0
sg775
I15
sg776
g7
(g8
(I0
tp873
g10
tp874
Rp875
(I1
(I3
tp876
g783
I00
S'\xfd\xba\xeb@\xcd\x1bL@3\x7f7\x93n\xbbU@\xe7imd\xc4\xf8I\xc0'
p877
tp878
bsg788
S'Cell[3].axon[293]'
p879
sI15
I28
tp880
a(F2.081401223185298
S'Cell[4].apic[71] syn_ = new ExpSid(0.5)'
p881
I4
(dp882
g773
F0.16666666666666666
sg774
F3.0
sg775
I15
sg776
g7
(g8
(I0
tp883
g10
tp884
Rp885
(I1
(I3
tp886
g783
I00
S'\x18Cn\xe9TYB\xc0Q\xe0\xa9w\xe0\x8cZ@\x14\xd3\xedo\xb1\x0c\xe0\xbf'
p887
tp888
bsg788
S'Cell[3].axon[319]'
p889
sI15
I16
tp890
a(F2.24398371732961
S'Cell[0].dend[36] syn_ = new FastInhib(0.5)'
p891
I0
(dp892
g773
F0.16666666666666666
sg774
F3.0
sg775
I39
sg776
g7
(g8
(I0
tp893
g10
tp894
Rp895
(I1
(I3
tp896
g783
I00
S"\x84\xc2\xef:g{[@}\xe1\xb6\xb1\x8d:L\xc0R?\x1f]\x81*'\xc0"
p897
tp898
bsg788
S'Cell[9].axon[111]'
p899
sI39
I0
tp900
a(F1.2532103582497045
S'Cell[1].apic[27] syn_ = new ExpSid(0.833333333333)'
p901
I1
(dp902
g773
F0.8333333333333333
sg774
F3.0
sg775
I27
sg776
g7
(g8
(I0
tp903
g10
tp904
Rp905
(I1
(I3
tp906
g783
I00
S'\r\xc5\xb9\x80w\xd4H@\x13\x07D\x06\x17-b@_.\x96Y\r\xf6%\xc0'
p907
tp908
bsg788
S'Cell[6].axon[58]'
p909
sI27
I4
tp910
a(F2.4511029389895307
S'Cell[0].dend[52] syn_ = new FastInhib(0.5)'
p911
I0
(dp912
g773
F0.5
sg774
F3.0
sg775
I27
sg776
g7
(g8
(I0
tp913
g10
tp914
Rp915
(I1
(I3
tp916
g783
I00
S'0\x10\xf5\x01\xe7\xe7,\xc0\xda\x86\x86W\x93\x83V\xc0\xff\xff\xff?3s6\xc0'
p917
tp918
bsg788
S'Cell[6].axon[143]'
p919
sI27
I0
tp920
a(F1.780905540435933
S'Cell[2].apic[20] syn_ = new ExpSid(0.5)'
p921
I2
(dp922
g773
F0.8333333333333333
sg774
F3.0
sg775
I27
sg776
g7
(g8
(I0
tp923
g10
tp924
Rp925
(I1
(I3
tp926
g783
I00
S'\xb9\x0f\x9f\xcf+<#@\xc5;\xeb\xee\tE]@\x00\x00\x00@3\xb33@'
p927
tp928
bsg788
S'Cell[6].axon[197]'
p929
sI27
I8
tp930
a(F0.888090115988757
S'Cell[3].dend[46] syn_ = new FastInhib(0.166666666667)'
p931
I3
(dp932
g773
F0.5
sg774
F3.0
sg775
I27
sg776
g7
(g8
(I0
tp933
g10
tp934
Rp935
(I1
(I3
tp936
g783
I00
S'V\x12\x84>.\x13\x15@\x91\x99\rj\x87\x1fC\xc0\xee\xe5y\xd5\x8a\xf59\xc0'
p937
tp938
bsg788
S'Cell[6].axon[201]'
p939
sI27
I12
tp940
a(F2.1140074253800347
S'Cell[7].dend[8] syn_ = new ExpSid(0.833333333333)'
p941
I7
(dp942
g773
F0.8333333333333333
sg774
F3.0
sg775
I27
sg776
g7
(g8
(I0
tp943
g10
tp944
Rp945
(I1
(I3
tp946
g783
I00
S'\x87S:L\xd1\x0f4\xc0\x8d\xdc0#\x15rT@\tUMj\xb8\xd75@'
p947
tp948
bsg788
S'Cell[6].axon[229]'
p949
sI27
I28
tp950
a(F1.883429092780631
S'Cell[0].dend[52] syn_ = new FastInhib(0.5)'
p951
I0
(dp952
g773
F0.5
sg774
F3.0
sg775
I27
sg776
g7
(g8
(I0
tp953
g10
tp954
Rp955
(I1
(I3
tp956
g783
I00
S'2@\xd1,\x1br)\xc0\xaa\xa8\xca\xa2\x1f\xcaV\xc0\x86\x15\xa3\x84p\xfa7\xc0'
p957
tp958
bsg788
S'Cell[6].axon[244]'
p959
sI27
I0
tp960
a(F1.5267258617342476
S'Cell[7].apic[40] syn_ = new ExpSid(0.5)'
p961
I7
(dp962
g773
F0.30000000000000004
sg774
F3.0
sg775
I27
sg776
g7
(g8
(I0
tp963
g10
tp964
Rp965
(I1
(I3
tp966
g783
I00
S'\x0e\x91\xa0\x0b\xfa\x1cB@\xe2y\xc0\x12\x01"U@\xdf\xed\xa1\xb7@h\x18\xc0'
p967
tp968
bsg788
S'Cell[6].axon[308]'
p969
sI27
I28
tp970
a.