(lp0
(F1.2651161850041495
S'Cell[6].dend[2] syn_ = new AmpaNmda(0.833333333333)'
p1
I6
(dp2
S'seg'
p3
F0.5
sS'hostfrom'
p4
F0.0
sS'gid'
p5
I0
sS'coords'
p6
cnumpy.core.multiarray
_reconstruct
p7
(cnumpy
ndarray
p8
(I0
tp9
S'b'
p10
tp11
Rp12
(I1
(I3
tp13
cnumpy
dtype
p14
(S'f8'
p15
I0
I1
tp16
Rp17
(I3
S'<'
p18
NNNI-1
I-1
I0
tp19
bI00
S'\x7f{X\x93>jA\xc0h\x96\xc5]\xca\x9b@@\xb9(\x97\x8c\xa1s\xde\xbf'
p20
tp21
bsS'secnames'
p22
S'Cell[0].axon[1]'
p23
sI0
I26
tp24
a(F2.200663305159668
S'Cell[0].apic[26] syn_ = new AmpaNmda(0.5)'
p25
I0
(dp26
g3
F0.5
sg4
F0.0
sg5
I0
sg6
g7
(g8
(I0
tp27
g10
tp28
Rp29
(I1
(I3
tp30
g17
I00
S'TQ5Y\x1bCM\xc0\x08\x0e\xbe\x1e\x01\x05B@0\xec\xdcZM\xe8(\xc0'
p31
tp32
bsg22
S'Cell[0].axon[6]'
p33
sI0
I2
tp34
a(F1.6643857238857713
S'Cell[2].dend[38] syn_ = new AmpaNmda(0.5)'
p35
I2
(dp36
g3
F0.16666666666666666
sg4
F0.0
sg5
I0
sg6
g7
(g8
(I0
tp37
g10
tp38
Rp39
(I1
(I3
tp40
g17
I00
S'.rv1?<H\xc0\xd2X\xf9\xb3=U?\xc0\x96\xbd#\xab\xc3!\xf9?'
p41
tp42
bsg22
S'Cell[0].axon[30]'
p43
sI0
I10
tp44
a(F0.7428042630163239
S'Cell[0].dend[35] syn_ = new AmpaNmda(0.166666666667)'
p45
I0
(dp46
g3
F0.5
sg4
F0.0
sg5
I0
sg6
g7
(g8
(I0
tp47
g10
tp48
Rp49
(I1
(I3
tp50
g17
I00
S'\xe0\xadM\xd9K3;\xc0\x00\\\xed\xfe\xea\xaa+\xc0{f\xd2#\xfd\xfe+\xc0'
p51
tp52
bsg22
S'Cell[0].axon[84]'
p53
sI0
I2
tp54
a(F1.3427286991191325
S'Cell[0].apic[21] syn_ = new AmpaNmda(0.5)'
p55
I0
(dp56
g3
F0.5
sg4
F0.0
sg5
I0
sg6
g7
(g8
(I0
tp57
g10
tp58
Rp59
(I1
(I3
tp60
g17
I00
S'\xa80\x16\xa3\xb8kP\xc0`-\\f\xc1\x0bS@\xd6\xa9\xe38e\x8c!\xc0'
p61
tp62
bsg22
S'Cell[0].axon[179]'
p63
sI0
I2
tp64
a(F2.2025462787511705
S'Cell[1].dend[0] syn_ = new FastInhib(0.5)'
p65
I1
(dp66
g3
F0.8333333333333333
sg4
F0.0
sg5
I0
sg6
g7
(g8
(I0
tp67
g10
tp68
Rp69
(I1
(I3
tp70
g17
I00
S'nX]M\xd8A3@\x8a<\x170\x02-3@#n=\xbct\x88\xe1\xbf'
p71
tp72
bsg22
S'Cell[0].axon[199]'
p73
sI0
I6
tp74
a(F2.3266942443681686
S'Cell[6].dend[29] syn_ = new AmpaNmda(0.5)'
p75
I6
(dp76
g3
F0.16666666666666666
sg4
F0.0
sg5
I0
sg6
g7
(g8
(I0
tp77
g10
tp78
Rp79
(I1
(I3
tp80
g17
I00
S'7\xd5\xc3)h\xfc@@\x00\x00\x00\x80\xeb\x910@\xf3\xd0\xcd\xc3C\x15\xed\xbf'
p81
tp82
bsg22
S'Cell[0].axon[200]'
p83
sI0
I26
tp84
a(F1.0018559051420899
S'Cell[9].apic[0] syn_ = new AmpaNmda(0.5)'
p85
I9
(dp86
g3
F0.8333333333333335
sg4
F0.0
sg5
I32
sg6
g7
(g8
(I0
tp87
g10
tp88
Rp89
(I1
(I3
tp90
g17
I00
S"T\xf3'Y\xba%J@\xee\xeb\xfa@<\xbeS@G0\xac\x0b\xfa\xd3\x11\xc0"
p91
tp92
bsg22
S'Cell[8].axon[38]'
p93
sI32
I38
tp94
a(F1.574175858644241
S'Cell[4].apic[5] syn_ = new FastInhib(0.0555555555556)'
p95
I4
(dp96
g3
F0.5
sg4
F0.0
sg5
I4
sg6
g7
(g8
(I0
tp97
g10
tp98
Rp99
(I1
(I3
tp100
g17
I00
S'H\x14\t,\x83vA@\xd3A\x98\xe5>\xf9K\xc0\xf74\xca\x8a\xcf\x95\x10@'
p101
tp102
bsg22
S'Cell[1].axon[23]'
p103
sI4
I18
tp104
a(F1.6304274616410026
S'Cell[8].apic[10] syn_ = new AmpaNmda(0.5)'
p105
I8
(dp106
g3
F0.16666666666666666
sg4
F0.0
sg5
I12
sg6
g7
(g8
(I0
tp107
g10
tp108
Rp109
(I1
(I3
tp110
g17
I00
S'8\xb8!5<\xf6O@k\x19\xbe;+\xefa@IV\xc7\xf2\x16\xa9\x06@'
p111
tp112
bsg22
S'Cell[3].axon[327]'
p113
sI12
I34
tp114
a(F2.4554444050222055
S'Cell[1].dend[53] syn_ = new FastInhib(0.9)'
p115
I1
(dp116
g3
F0.5
sg4
F0.0
sg5
I12
sg6
g7
(g8
(I0
tp117
g10
tp118
Rp119
(I1
(I3
tp120
g17
I00
S'\xa8*Lc\x05\xdeH@u\xcai#N\xb6S@\x17\xdf?Y\xfa\xe9-\xc0'
p121
tp122
bsg22
S'Cell[3].axon[329]'
p123
sI12
I6
tp124
a(F2.2089475449636002
S'Cell[6].dend[27] syn_ = new AmpaNmda(0.1)'
p125
I6
(dp126
g3
F0.5
sg4
F0.0
sg5
I12
sg6
g7
(g8
(I0
tp127
g10
tp128
Rp129
(I1
(I3
tp130
g17
I00
S'\x9c\r\x10d\x16\x9bA@&\xd6E\xa5\x87@>@\xb8ls[\xc7\x02A\xc0'
p131
tp132
bsg22
S'Cell[3].axon[403]'
p133
sI12
I26
tp134
a(F2.345292280314614
S'Cell[7].dend[15] syn_ = new FastInhib(0.5)'
p135
I7
(dp136
g3
F0.8333333333333333
sg4
F0.0
sg5
I24
sg6
g7
(g8
(I0
tp137
g10
tp138
Rp139
(I1
(I3
tp140
g17
I00
S'\xd8\x13\x1d/p\x9c5@\xb8]\x11\xc8\xa8\xd3J@\xccX;\xa7y\xdcC\xc0'
p141
tp142
bsg22
S'Cell[6].axon[20]'
p143
sI24
I30
tp144
a(F2.117642899072051
S'Cell[0].apic[21] syn_ = new AmpaNmda(0.5)'
p145
I0
(dp146
g3
F0.30000000000000004
sg4
F0.0
sg5
I24
sg6
g7
(g8
(I0
tp147
g10
tp148
Rp149
(I1
(I3
tp150
g17
I00
S'\x8c\x1c\xd9q\x91\xdfP\xc0\x1fTO\x9e\xcd\x08S@\xda\x8dK\xf4s\x05\x19\xc0'
p151
tp152
bsg22
S'Cell[6].axon[125]'
p153
sI24
I2
tp154
a(F2.4139654431253756
S'Cell[0].apic[21] syn_ = new AmpaNmda(0.5)'
p155
I0
(dp156
g3
F0.8333333333333333
sg4
F0.0
sg5
I24
sg6
g7
(g8
(I0
tp157
g10
tp158
Rp159
(I1
(I3
tp160
g17
I00
S'\x12\xb2\xac\xd8\x8b\xbaP\xc0f(Hsr\xedR@\x00\x00\x00\x80\xebQ\x16\xc0'
p161
tp162
bsg22
S'Cell[6].axon[126]'
p163
sI24
I2
tp164
a(F2.2113434534068515
S'Cell[9].apic[8] syn_ = new AmpaNmda(0.166666666667)'
p165
I9
(dp166
g3
F0.5
sg4
F0.0
sg5
I24
sg6
g7
(g8
(I0
tp167
g10
tp168
Rp169
(I1
(I3
tp170
g17
I00
S'\x00\x00\x00\xb0GQH@\x00\x00\x00\xe0\xa3\xbcb@\x00\x00\x00 \\\x8f/\xc0'
p171
tp172
bsg22
S'Cell[6].axon[335]'
p173
sI24
I38
tp174
a(F1.5428540000901223
S'Cell[7].dend[53] syn_ = new FastInhib(0.5)'
p175
I7
(dp176
g3
F0.5
sg4
F0.0
sg5
I24
sg6
g7
(g8
(I0
tp177
g10
tp178
Rp179
(I1
(I3
tp180
g17
I00
S'n0U5\x9d,\x11\xc0&\xee\x05\xaav\xee-@\xfa\xc2\xcd\x1e\xd8\x0c\xee\xbf'
p181
tp182
bsg22
S'Cell[6].axon[402]'
p183
sI24
I30
tp184
a(F2.1119317575798453
S'Cell[3].dend[2] syn_ = new AmpaNmda(0.1)'
p185
I3
(dp186
g3
F0.8333333333333333
sg4
F0.0
sg5
I24
sg6
g7
(g8
(I0
tp187
g10
tp188
Rp189
(I1
(I3
tp190
g17
I00
S'\xfa\r=\xcbjt1\xc0\x0e\xed\xa4\x1a\xef\x011@\xb9\xaeN\xf8\xaa\xbe\x10@'
p191
tp192
bsg22
S'Cell[6].axon[402]'
p193
sI24
I14
tp194
a(F1.2698506261797282
S'Cell[1].dend[39] syn_ = new FastInhib(0.5)'
p195
I1
(dp196
g3
F0.5
sg4
F0.0
sg5
I36
sg6
g7
(g8
(I0
tp197
g10
tp198
Rp199
(I1
(I3
tp200
g17
I00
S'e*A\x11ms6@X\xb5\x19\x19,\xf4J@~\x1be\xdd"\x85\t\xc0'
p201
tp202
bsg22
S'Cell[9].axon[79]'
p203
sI36
I6
tp204
a(F1.8198433562233811
S'Cell[7].dend[26] syn_ = new FastInhib(0.5)'
p205
I7
(dp206
g3
F0.8999999999999999
sg4
F0.0
sg5
I36
sg6
g7
(g8
(I0
tp207
g10
tp208
Rp209
(I1
(I3
tp210
g17
I00
S'\x04l\xcd\x03\xa0\xd03@\xea\xe1i\x92(\x17X@\xbdF\xb9tP\xcaB\xc0'
p211
tp212
bsg22
S'Cell[9].axon[241]'
p213
sI36
I30
tp214
a(F2.344152688888211
S'Cell[9].dend[9] syn_ = new ExpSid(0.5)'
p215
I9
(dp216
S'seg'
p217
F0.5
sS'hostfrom'
p218
F1.0
sS'gid'
p219
I5
sS'coords'
p220
g7
(g8
(I0
tp221
g10
tp222
Rp223
(I1
(I3
tp224
g14
(S'f8'
p225
I0
I1
tp226
Rp227
(I3
S'<'
p228
NNNI-1
I-1
I0
tp229
bI00
S'\xc8\xb1\xbe\xa4Vc4@\xc2\xd6\x8c\x94AUR@\xf5\xa97\xd8F?7\xc0'
p230
tp231
bsS'secnames'
p232
S'Cell[1].axon[69]'
p233
sI5
I38
tp234
a(F0.3668750431398756
S'Cell[6].dend[66] syn_ = new ExpSid(0.5)'
p235
I6
(dp236
g217
F0.5
sg218
F1.0
sg219
I33
sg220
g7
(g8
(I0
tp237
g10
tp238
Rp239
(I1
(I3
tp240
g227
I00
S'\\\xaa\xf2\xba\x1d\xc43@\xc8ox ]sK@3\xbe5\xe5`\x0e2@'
p241
tp242
bsg232
S'Cell[8].axon[3]'
p243
sI33
I26
tp244
a(F2.065742114744627
S'Cell[2].dend[8] syn_ = new ExpSid(0.5)'
p245
I2
(dp246
g217
F0.16666666666666666
sg218
F1.0
sg219
I33
sg220
g7
(g8
(I0
tp247
g10
tp248
Rp249
(I1
(I3
tp250
g227
I00
S"u\xce\xca\x18\xd0\xaf1@\x04\x00\x826\x8e\xab1\xc0\xfb,-'w\xe2'@"
p251
tp252
bsg232
S'Cell[8].axon[8]'
p253
sI33
I10
tp254
a(F1.5370952133490856
S'Cell[8].dend[1] syn_ = new ExpSid(0.166666666667)'
p255
I8
(dp256
g217
F0.5
sg218
F1.0
sg219
I33
sg220
g7
(g8
(I0
tp257
g10
tp258
Rp259
(I1
(I3
tp260
g227
I00
S'\xe6\xb9\x82\xac\r\xcc5@$l\xadN@r\x0e@\x00\x00\x00@\xe1\xfa(\xc0'
p261
tp262
bsg232
S'Cell[8].axon[97]'
p263
sI33
I34
tp264
a(F2.035863392071496
S'Cell[6].dend[5] syn_ = new ExpSid(0.3)'
p265
I6
(dp266
g217
F0.21428571428571427
sg218
F1.0
sg219
I33
sg220
g7
(g8
(I0
tp267
g10
tp268
Rp269
(I1
(I3
tp270
g227
I00
S'\x01\x00\x00\x80\x14\x8e@\xc0\xaf\x7f\xd41\xe0\x0cL@"I\xb6\xee\xa2|B\xc0'
p271
tp272
bsg232
S'Cell[8].axon[173]'
p273
sI33
I26
tp274
a(F2.4732835017343766
S'Cell[5].dend[13] syn_ = new ExpSid(0.5)'
p275
I5
(dp276
g217
F0.07142857142857142
sg218
F1.0
sg219
I33
sg220
g7
(g8
(I0
tp277
g10
tp278
Rp279
(I1
(I3
tp280
g227
I00
S"\x14\xda\x96o\xf2\xac-\xc0]\x04\xf5\x8cp\xd7A@\x87\x9a\x8ddNM'\xc0"
p281
tp282
bsg232
S'Cell[8].axon[207]'
p283
sI33
I22
tp284
a(F1.460883836606588
S'Cell[8].apic[10] syn_ = new ExpSid(0.5)'
p285
I8
(dp286
g217
F0.49999999999999994
sg218
F1.0
sg219
I33
sg220
g7
(g8
(I0
tp287
g10
tp288
Rp289
(I1
(I3
tp290
g227
I00
S'\x84+%\xe4\xf1\x8fP@\xe0\xd6\xe1\x14~\xfca@^\xf0\xf1\xa8\xc6\xb1\x0e@'
p291
tp292
bsg232
S'Cell[8].axon[259]'
p293
sI33
I34
tp294
a(F2.477756012300883
S'Cell[5].dend[11] syn_ = new ExpSid(0.166666666667)'
p295
I5
(dp296
g217
F0.5
sg218
F1.0
sg219
I9
sg220
g7
(g8
(I0
tp297
g10
tp298
Rp299
(I1
(I3
tp300
g227
I00
S'\xba\xdd2\x96\x9fD=\xc0\x80H\xd4\xa6j\xb2@@\xff\xff\xff?\n\x179\xc0'
p301
tp302
bsg232
S'Cell[2].axon[100]'
p303
sI9
I22
tp304
a(F1.57180849120136
S'Cell[3].apic[12] syn_ = new ExpSid(0.5)'
p305
I3
(dp306
g217
F0.8333333333333333
sg218
F1.0
sg219
I9
sg220
g7
(g8
(I0
tp307
g10
tp308
Rp309
(I1
(I3
tp310
g227
I00
S'^\xb4\xa1\x02\xfb\x10(@\xd1\x07\xe4\xd6\xb0MW@\xad\x15\xac\xf4\xf7\xce-@'
p311
tp312
bsg232
S'Cell[2].axon[192]'
p313
sI9
I14
tp314
a(F1.490944330428297
S'Cell[4].dend[1] syn_ = new FastInhib(0.833333333333)'
p315
I4
(dp316
g217
F0.16666666666666666
sg218
F1.0
sg219
I9
sg220
g7
(g8
(I0
tp317
g10
tp318
Rp319
(I1
(I3
tp320
g227
I00
S"\xd2\xe4\\\xb0q\xdb\x1a\xc0\xff\xff\xff?\nW'\xc05D\xb2\xdb!\xad\x07@"
p321
tp322
bsg232
S'Cell[2].axon[302]'
p323
sI9
I18
tp324
a(F1.886611190675065
S'Cell[5].dend[2] syn_ = new ExpSid(0.833333333333)'
p325
I5
(dp326
g217
F0.16666666666666666
sg218
F1.0
sg219
I9
sg220
g7
(g8
(I0
tp327
g10
tp328
Rp329
(I1
(I3
tp330
g227
I00
S'\xae\x10\x0fLr3K@l\xbf\x1a\x02\xf9\xcc\xe8?\xfa\xea4\xads\xdb8\xc0'
p331
tp332
bsg232
S'Cell[2].axon[350]'
p333
sI9
I22
tp334
a(F2.072806434588587
S'Cell[2].dend[33] syn_ = new ExpSid(0.833333333333)'
p335
I2
(dp336
g217
F0.5
sg218
F1.0
sg219
I9
sg220
g7
(g8
(I0
tp337
g10
tp338
Rp339
(I1
(I3
tp340
g227
I00
S'\n2-\xa4\x81\xf6N@D>P\x86\xad\\\xe3?\x9b\x1d\xd8\xf3\xe06\xe4\xbf'
p341
tp342
bsg232
S'Cell[2].axon[350]'
p343
sI9
I10
tp344
a(F2.124361427737857
S'Cell[8].apic[30] syn_ = new ExpSid(0.1)'
p345
I8
(dp346
g217
F0.16666666666666666
sg218
F1.0
sg219
I9
sg220
g7
(g8
(I0
tp347
g10
tp348
Rp349
(I1
(I3
tp350
g227
I00
S"$\x0f+x\x1b6V@\xe3_&\x1c\x9b='@F\xb3\xb8\xfb]\xa1,\xc0"
p351
tp352
bsg232
S'Cell[2].axon[356]'
p353
sI9
I34
tp354
a(F2.4346538941882345
S'Cell[3].dend[2] syn_ = new ExpSid(0.7)'
p355
I3
(dp356
g217
F0.16666666666666666
sg218
F1.0
sg219
I17
sg220
g7
(g8
(I0
tp357
g10
tp358
Rp359
(I1
(I3
tp360
g227
I00
S'\xf4\xfd+\xc0H\xe9U\xc0\xbeh\xd1^\xa5\xc4*@\xb5^\xfe\xe3\xed\xdb\x1d@'
p361
tp362
bsg232
S'Cell[4].axon[12]'
p363
sI17
I14
tp364
a(F2.2560219519183726
S'Cell[1].dend[38] syn_ = new FastInhib(0.928571428571)'
p365
I1
(dp366
g217
F0.9444444444444446
sg218
F1.0
sg219
I21
sg220
g7
(g8
(I0
tp367
g10
tp368
Rp369
(I1
(I3
tp370
g227
I00
S'm\x00\x95\x94!!S@\xa3\x8b\xdd\xc4Z\x13K\xc0\x01\x00\x00 \\\x8f+\xc0'
p371
tp372
bsg232
S'Cell[5].axon[10]'
p373
sI21
I6
tp374
a(F1.7283384318114305
S'Cell[5].dend[4] syn_ = new ExpSid(0.166666666667)'
p375
I5
(dp376
g217
F0.6111111111111112
sg218
F1.0
sg219
I37
sg220
g7
(g8
(I0
tp377
g10
tp378
Rp379
(I1
(I3
tp380
g227
I00
S'(\xf4\xf8\x9c\xcf\x87#@\x04\xf5\xc5hk5B@\x10]\xce\x8a\x95o?\xc0'
p381
tp382
bsg232
S'Cell[9].axon[3]'
p383
sI37
I22
tp384
a(F1.1228277692762787
S'Cell[3].apic[16] syn_ = new AmpaNmda(0.5)'
p385
I3
(dp386
S'seg'
p387
F0.16666666666666666
sS'hostfrom'
p388
F2.0
sS'gid'
p389
I6
sS'coords'
p390
g7
(g8
(I0
tp391
g10
tp392
Rp393
(I1
(I3
tp394
g14
(S'f8'
p395
I0
I1
tp396
Rp397
(I3
S'<'
p398
NNNI-1
I-1
I0
tp399
bI00
S"\xd7C%:\x96\x1c'@\xdcV\xa1GL\xee[@o\xe5\x8f\xf9\xb8\x841@"
p400
tp401
bsS'secnames'
p402
S'Cell[1].axon[3]'
p403
sI6
I14
tp404
a(F2.2595009723704083
S'Cell[0].dend[35] syn_ = new AmpaNmda(0.166666666667)'
p405
I0
(dp406
g387
F0.16666666666666666
sg388
F2.0
sg389
I6
sg390
g7
(g8
(I0
tp407
g10
tp408
Rp409
(I1
(I3
tp410
g397
I00
S'\x1c.p\xac\x81\x039\xc0Vr\x8c\x12\xca\x00*\xc0*\x9bt\xf7\xa7\xad*\xc0'
p411
tp412
bsg402
S'Cell[1].axon[231]'
p413
sI6
I2
tp414
a(F1.2635938230134636
S'Cell[6].apic[26] syn_ = new AmpaNmda(0.166666666667)'
p415
I6
(dp416
g387
F0.8333333333333333
sg388
F2.0
sg389
I6
sg390
g7
(g8
(I0
tp417
g10
tp418
Rp419
(I1
(I3
tp420
g397
I00
S'\xf6\x14\xfe\x94-\x04(@\xa1-\x1b\xde\xb0\xadW@\xf07\xbd0Qa\x14@'
p421
tp422
bsg402
S'Cell[1].axon[248]'
p423
sI6
I26
tp424
a(F2.4266577245976904
S'Cell[3].dend[0] syn_ = new AmpaNmda(0.5)'
p425
I3
(dp426
g387
F0.5
sg388
F2.0
sg389
I10
sg390
g7
(g8
(I0
tp427
g10
tp428
Rp429
(I1
(I3
tp430
g397
I00
S'8?\x1f \x07R\x02\xc0m\xb9R(\xc8\x146@\x13s\xf3\x8f\x12u#@'
p431
tp432
bsg402
S'Cell[2].axon[4]'
p433
sI10
I14
tp434
a(F2.2482763386671056
S'Cell[6].dend[36] syn_ = new AmpaNmda(0.5)'
p435
I6
(dp436
g387
F0.5
sg388
F2.0
sg389
I18
sg390
g7
(g8
(I0
tp437
g10
tp438
Rp439
(I1
(I3
tp440
g397
I00
S'\xbf0\xbd%\x81<,@\xb3fJ\xea/\xe8E@\xdd\xdb[\x97\x10\x0f<\xc0'
p441
tp442
bsg402
S'Cell[4].axon[71]'
p443
sI18
I26
tp444
a(F1.8758992226100004
S'Cell[1].dend[48] syn_ = new FastInhib(0.833333333333)'
p445
I1
(dp446
g387
F0.5
sg388
F2.0
sg389
I18
sg390
g7
(g8
(I0
tp447
g10
tp448
Rp449
(I1
(I3
tp450
g397
I00
S'\xda\xb8A\xf4\x7f\x91Q@\x18\xe6Q\xdcNsL@\xb5\x11\x88\x88\xe7\xa6E\xc0'
p451
tp452
bsg402
S'Cell[4].axon[74]'
p453
sI18
I6
tp454
a(F0.47186975120519054
S'Cell[1].dend[35] syn_ = new FastInhib(0.1)'
p455
I1
(dp456
g387
F0.5
sg388
F2.0
sg389
I18
sg390
g7
(g8
(I0
tp457
g10
tp458
Rp459
(I1
(I3
tp460
g397
I00
S'\xa6Hk\xc8\xef\x8d@@\x085vx\x86`\xf4\xbfH\xaf"=\xf7e\x05@'
p461
tp462
bsg402
S'Cell[4].axon[105]'
p463
sI18
I6
tp464
a(F2.402207078616032
S'Cell[8].apic[30] syn_ = new AmpaNmda(0.1)'
p465
I8
(dp466
g387
F0.16666666666666666
sg388
F2.0
sg389
I18
sg390
g7
(g8
(I0
tp467
g10
tp468
Rp469
(I1
(I3
tp470
g397
I00
S'\x00\xa2\xaagO\x00V@\xe7\xeb\xa9&\x01\xed$@>X\xd8\x1b\x8c\xf3(\xc0'
p471
tp472
bsg402
S'Cell[4].axon[171]'
p473
sI18
I34
tp474
a(F2.175925217653752
S'Cell[6].dend[30] syn_ = new AmpaNmda(0.166666666667)'
p475
I6
(dp476
g387
F0.16666666666666666
sg388
F2.0
sg389
I18
sg390
g7
(g8
(I0
tp477
g10
tp478
Rp479
(I1
(I3
tp480
g397
I00
S'R\xbf\x99\\\xcf\xc2+@up^\x15h:<@\x92\x80\x87\x16HF\x00@'
p481
tp482
bsg402
S'Cell[4].axon[208]'
p483
sI18
I26
tp484
a(F1.9977815093315139
S'Cell[8].apic[8] syn_ = new AmpaNmda(0.5)'
p485
I8
(dp486
g387
F0.5
sg388
F2.0
sg389
I26
sg390
g7
(g8
(I0
tp487
g10
tp488
Rp489
(I1
(I3
tp490
g397
I00
S'\x00\x00\x00p=\xeaN@\x00\x00\x00\xb0G\xbdt@\x00\x00\x00\xc0\xcc\xcc\x10\xc0'
p491
tp492
bsg402
S'Cell[6].axon[11]'
p493
sI26
I34
tp494
a(F2.4844017028495404
S'Cell[3].apic[10] syn_ = new AmpaNmda(0.5)'
p495
I3
(dp496
g387
F0.1
sg388
F2.0
sg389
I30
sg390
g7
(g8
(I0
tp497
g10
tp498
Rp499
(I1
(I3
tp500
g397
I00
S"\x073\x94\xff\xa4^%@\xec\xe3\xde;\xcdUS@\xa7\xd0'\xb8\x08}(@"
p501
tp502
bsg402
S'Cell[7].axon[4]'
p503
sI30
I14
tp504
a(F2.353991115144838
S'Cell[9].dend[22] syn_ = new AmpaNmda(0.214285714286)'
p505
I9
(dp506
g387
F0.5
sg388
F2.0
sg389
I30
sg390
g7
(g8
(I0
tp507
g10
tp508
Rp509
(I1
(I3
tp510
g397
I00
S'\x06=2\x7f\xd7\x95N@,\x80|\x17\xb8\x13\x1d@\xa2F\xd4{\xbc\xee0\xc0'
p511
tp512
bsg402
S'Cell[7].axon[82]'
p513
sI30
I38
tp514
a(F1.3637642731643718
S'Cell[6].dend[33] syn_ = new AmpaNmda(0.5)'
p515
I6
(dp516
g387
F0.5
sg388
F2.0
sg389
I30
sg390
g7
(g8
(I0
tp517
g10
tp518
Rp519
(I1
(I3
tp520
g397
I00
S'KF\x98\xe7>\x92\x12@nA\x14\x8f\t\x17M@)\xc1\xcc\xed;\x1b)\xc0'
p521
tp522
bsg402
S'Cell[7].axon[237]'
p523
sI30
I26
tp524
a(F1.5429467196790079
S'Cell[2].dend[16] syn_ = new AmpaNmda(0.833333333333)'
p525
I2
(dp526
g387
F0.5
sg388
F2.0
sg389
I30
sg390
g7
(g8
(I0
tp527
g10
tp528
Rp529
(I1
(I3
tp530
g397
I00
S'\x1a\xf5\xf5t\xe2DE@\x00\x00\x00\x80=\n\xc7\xbf\x98\xaf6\x94M\xb3K\xc0'
p531
tp532
bsg402
S'Cell[7].axon[255]'
p533
sI30
I10
tp534
a(F2.4770744739548123
S'Cell[2].dend[27] syn_ = new ExpSid(0.166666666667)'
p535
I2
(dp536
S'seg'
p537
F0.16666666666666666
sS'hostfrom'
p538
F3.0
sS'gid'
p539
I35
sS'coords'
p540
g7
(g8
(I0
tp541
g10
tp542
Rp543
(I1
(I3
tp544
g14
(S'f8'
p545
I0
I1
tp546
Rp547
(I3
S'<'
p548
NNNI-1
I-1
I0
tp549
bI00
S' \x9b\x8cwv+G@R\xd3>0E\x0c\x1e\xc0\x00\x00\x00\x00\x00\x00\x10@'
p550
tp551
bsS'secnames'
p552
S'Cell[8].axon[0]'
p553
sI35
I10
tp554
a(F2.0876850301498386
S'Cell[5].apic[12] syn_ = new ExpSid(0.9)'
p555
I5
(dp556
g537
F0.8333333333333333
sg538
F3.0
sg539
I3
sg540
g7
(g8
(I0
tp557
g10
tp558
Rp559
(I1
(I3
tp560
g547
I00
S'\x91R.o4,W\xc0\xd3\x1e\x1a\x04\x831e\xc0\xa6D\x8b/\x08\xcf\xe0?'
p561
tp562
bsg552
S'Cell[0].axon[70]'
p563
sI3
I22
tp564
a(F2.3635369263211583
S'Cell[4].apic[14] syn_ = new FastInhib(0.5)'
p565
I4
(dp566
g537
F0.16666666666666666
sg538
F3.0
sg539
I15
sg540
g7
(g8
(I0
tp567
g10
tp568
Rp569
(I1
(I3
tp570
g547
I00
S'\xabjq\xb4\xf0\xdfS@}\x17N\xfb\xbd\xab_\xc0<\xcb\x94\xae\x0bv\x15\xc0'
p571
tp572
bsg552
S'Cell[3].axon[86]'
p573
sI15
I18
tp574
a(F2.2709718196568676
S'Cell[5].dend[3] syn_ = new ExpSid(0.5)'
p575
I5
(dp576
g537
F0.5
sg538
F3.0
sg539
I15
sg540
g7
(g8
(I0
tp577
g10
tp578
Rp579
(I1
(I3
tp580
g547
I00
S'l9R\xa95\x02&@\x0c:\xe8\xcd\xfc\x179@\x95\xe9\x15{\xf8\x989\xc0'
p581
tp582
bsg552
S'Cell[3].axon[301]'
p583
sI15
I22
tp584
a(F2.4051724299857336
S'Cell[5].dend[13] syn_ = new ExpSid(0.5)'
p585
I5
(dp586
g537
F0.5
sg538
F3.0
sg539
I15
sg540
g7
(g8
(I0
tp587
g10
tp588
Rp589
(I1
(I3
tp590
g547
I00
S'\xc4\x9e\xe5\xdc@\xf5+\xc0\xfcp\x80C=\xf6@@h\x00\xfe\x99X\x82&\xc0'
p591
tp592
bsg552
S'Cell[3].axon[312]'
p593
sI15
I22
tp594
a(F1.5005419977086503
S'Cell[7].dend[55] syn_ = new FastInhib(0.1)'
p595
I7
(dp596
g537
F0.16666666666666666
sg538
F3.0
sg539
I15
sg540
g7
(g8
(I0
tp597
g10
tp598
Rp599
(I1
(I3
tp600
g547
I00
S'\x14\xb6\xfa\xe3\x04,=\xc0\xca\x0f\x0b\xda\x95\x0cS@Dc/\xc7\xb2k0\xc0'
p601
tp602
bsg552
S'Cell[3].axon[318]'
p603
sI15
I30
tp604
a(F2.378800832825058
S'Cell[4].dend[15] syn_ = new FastInhib(0.7)'
p605
I4
(dp606
g537
F0.5
sg538
F3.0
sg539
I39
sg540
g7
(g8
(I0
tp607
g10
tp608
Rp609
(I1
(I3
tp610
g547
I00
S'\x1bd\xa2z@\xbfX@;2\xff\x8ciGV\xc0\x189` ,dE\xc0'
p611
tp612
bsg552
S'Cell[9].axon[1]'
p613
sI39
I18
tp614
a(F0.9187569189473291
S'Cell[6].dend[31] syn_ = new ExpSid(0.833333333333)'
p615
I6
(dp616
g537
F0.8333333333333333
sg538
F3.0
sg539
I39
sg540
g7
(g8
(I0
tp617
g10
tp618
Rp619
(I1
(I3
tp620
g547
I00
S'\xe6\xaf\xcf\xb6,N\x1f@Y\xafd^G!I\xc0K\xe4(\xb8x]3@'
p621
tp622
bsg552
S'Cell[9].axon[50]'
p623
sI39
I26
tp624
a(F2.126037150534611
S'Cell[1].dend[20] syn_ = new FastInhib(0.5)'
p625
I1
(dp626
g537
F0.5
sg538
F3.0
sg539
I39
sg540
g7
(g8
(I0
tp627
g10
tp628
Rp629
(I1
(I3
tp630
g547
I00
S'\xba\xc5Z$\xc0\x94\\@\xa0\x1b\x0b\xe6%\x94g\xc0\x99\xc29\xd6Ao;@'
p631
tp632
bsg552
S'Cell[9].axon[474]'
p633
sI39
I6
tp634
a(F1.1745801772594124
S'Cell[1].dend[7] syn_ = new FastInhib(0.5)'
p635
I1
(dp636
g537
F0.8333333333333333
sg538
F3.0
sg539
I39
sg540
g7
(g8
(I0
tp637
g10
tp638
Rp639
(I1
(I3
tp640
g547
I00
S'\x83~\xe9XL\xf0F@\x0e\xa8|B\xb1\xe1f\xc0\x00\x00\x00\x00\x00\x80:@'
p641
tp642
bsg552
S'Cell[9].axon[486]'
p643
sI39
I6
tp644
a(F2.3470449401846314
S'Cell[1].dend[8] syn_ = new FastInhib(0.166666666667)'
p645
I1
(dp646
g537
F0.5
sg538
F3.0
sg539
I39
sg540
g7
(g8
(I0
tp647
g10
tp648
Rp649
(I1
(I3
tp650
g547
I00
S'\xc6\xecG\xe9\x1d\xd2F@)\xcf\xe9\xb9\x9cXh\xc0\xa0\xcf\x1fe\xc3\xb0B@'
p651
tp652
bsg552
S'Cell[9].axon[497]'
p653
sI39
I6
tp654
a(F1.457700905029164
S'Cell[5].dend[13] syn_ = new ExpSid(0.5)'
p655
I5
(dp656
g537
F0.16666666666666666
sg538
F3.0
sg539
I27
sg540
g7
(g8
(I0
tp657
g10
tp658
Rp659
(I1
(I3
tp660
g547
I00
S'\x1f\xdf\xa5 \x03\xf1)\xc0\xaa^t*\xaf\xb4@@\x94\xa8\xdaG\xb0Q*\xc0'
p661
tp662
bsg552
S'Cell[6].axon[13]'
p663
sI27
I22
tp664
a(F2.2221326574547153
S'Cell[5].dend[2] syn_ = new ExpSid(0.166666666667)'
p665
I5
(dp666
g537
F0.8333333333333333
sg538
F3.0
sg539
I27
sg540
g7
(g8
(I0
tp667
g10
tp668
Rp669
(I1
(I3
tp670
g547
I00
S'a\x1c\x98\x1a\xaf{:@\xfb$\xdcy\xb3\x00%@\xae\x0ff\x9e\xc809\xc0'
p671
tp672
bsg552
S'Cell[6].axon[48]'
p673
sI27
I22
tp674
a(F0.8106034506171825
S'Cell[5].apic[15] syn_ = new ExpSid(0.5)'
p675
I5
(dp676
g537
F0.8333333333333333
sg538
F3.0
sg539
I27
sg540
g7
(g8
(I0
tp677
g10
tp678
Rp679
(I1
(I3
tp680
g547
I00
S'\xd6\xf2\xc4\xd8\xd8 1\xc0\xdc\x0f\xa7\x04g\xf7[\xc0\xcc\xa7\xf1j\xe2\xf16\xc0'
p681
tp682
bsg552
S'Cell[6].axon[244]'
p683
sI27
I22
tp684
a(F1.8277362205625056
S'Cell[2].dend[7] syn_ = new ExpSid(0.7)'
p685
I2
(dp686
g537
F0.8333333333333333
sg538
F3.0
sg539
I27
sg540
g7
(g8
(I0
tp687
g10
tp688
Rp689
(I1
(I3
tp690
g547
I00
S'\x8e=U\x8b\xa9]E\xc0OE4E UH\xc0\xb8\xc1T\xb3\xd85!@'
p691
tp692
bsg552
S'Cell[6].axon[275]'
p693
sI27
I10
tp694
a.