(lp0
(F2.3562510301454473
S'Cell[5].dend[6] syn_ = new ExpSid(0.5)'
p1
I5
(dp2
S'seg'
p3
F0.5
sS'hostfrom'
p4
F1.0
sS'gid'
p5
I37
sS'coords'
p6
cnumpy.core.multiarray
_reconstruct
p7
(cnumpy
ndarray
p8
(I0
tp9
S'b'
p10
tp11
Rp12
(I1
(I3
tp13
cnumpy
dtype
p14
(S'f8'
p15
I0
I1
tp16
Rp17
(I3
S'<'
p18
NNNI-1
I-1
I0
tp19
bI00
S'\xef\xc3S\xc3\xfa\xbaX\xc0\xaes\x06\xd5\x16\x05!@\x86\xf7m#@U2\xc0'
p20
tp21
bsS'secnames'
p22
S'Cell[7].axon[9]'
p23
sI37
I29
tp24
a(F2.362603507532747
S'Cell[4].dend[7] syn_ = new ExpSid(0.833333333333)'
p25
I4
(dp26
g3
F0.5
sg4
F1.0
sg5
I17
sg6
g7
(g8
(I0
tp27
g10
tp28
Rp29
(I1
(I3
tp30
g17
I00
S'\xbe\x93`e\x07{S\xc0\xc0\xf0\x05\xf3\xbf\xea\x0c\xc0\x00\x00\x00@\xe1z\x14@'
p31
tp32
bsg22
S'Cell[3].axon[11]'
p33
sI17
I24
tp34
a(F2.4346538941882345
S'Cell[2].dend[2] syn_ = new ExpSid(0.7)'
p35
I2
(dp36
g3
F0.16666666666666666
sg4
F1.0
sg5
I17
sg6
g7
(g8
(I0
tp37
g10
tp38
Rp39
(I1
(I3
tp40
g17
I00
S'\xf4\xfd+\xc0H\xe9U\xc0\xbeh\xd1^\xa5\xc4*@\xb5^\xfe\xe3\xed\xdb\x1d@'
p41
tp42
bsg22
S'Cell[3].axon[12]'
p43
sI17
I14
tp44
a(F2.241087196656754
S'Cell[8].dend[0] syn_ = new ExpSid(0.5)'
p45
I8
(dp46
S'seg'
p47
F0.07142857142857142
sS'hostfrom'
p48
F2.0
sS'gid'
p49
I33
sS'coords'
p50
g7
(g8
(I0
tp51
g10
tp52
Rp53
(I1
(I3
tp54
g14
(S'f8'
p55
I0
I1
tp56
Rp57
(I3
S'<'
p58
NNNI-1
I-1
I0
tp59
bI00
S'\xbe\xb2&>\xda\x1b)\xc0\x9b\xab\xa9\x1d\xa4\xd1U\xc0\x8b\x89\xe9\xd1\xfb\x94=@'
p60
tp61
bsS'secnames'
p62
S'Cell[6].axon[37]'
p63
sI33
I44
tp64
a(F0.8594066504760234
S'Cell[8].dend[14] syn_ = new AmpaNmda(0.166666666667)'
p65
I8
(dp66
g47
F0.16666666666666666
sg48
F2.0
sg49
I38
sg50
g7
(g8
(I0
tp67
g10
tp68
Rp69
(I1
(I3
tp70
g57
I00
S'\xae\x10V@\xf3\x15\x1b@\xd2\xfe\x9f\x04\xc5\xf5M\xc0\x00\x00\x00\x80=\n\x1b\xc0'
p71
tp72
bsg62
S'Cell[7].axon[36]'
p73
sI38
I44
tp74
a(F2.384707805866366
S'Cell[0].dend[20] syn_ = new ExpSid(0.3)'
p75
I0
(dp76
g47
F0.5
sg48
F2.0
sg49
I13
sg50
g7
(g8
(I0
tp77
g10
tp78
Rp79
(I1
(I3
tp80
g57
I00
S'\xfe\xc9E\xc7\x1e\xa0*@\xcb{\x91&<PS\xc0_\x1e\x9a\x08\x17\xfd\x07@'
p81
tp82
bsg62
S'Cell[2].axon[6]'
p83
sI13
I4
tp84
a(F2.3086466164482866
S'Cell[8].dend[15] syn_ = new AmpaNmda(0.166666666667)'
p85
I8
(dp86
g47
F0.8333333333333333
sg48
F2.0
sg49
I18
sg50
g7
(g8
(I0
tp87
g10
tp88
Rp89
(I1
(I3
tp90
g57
I00
S'\xb5\xb6\xe3\x94\x94\xb9"\xc0\x9a%\xdf\xd1\xe9\xcfM\xc0\x00\x00\x00\x80\xebQ%\xc0'
p91
tp92
bsg62
S'Cell[3].axon[0]'
p93
sI18
I44
tp94
a(F2.0112980203355812
S'Cell[4].apic[11] syn_ = new ExpSid(0.833333333333)'
p95
I4
(dp96
g47
F0.5
sg48
F2.0
sg49
I23
sg50
g7
(g8
(I0
tp97
g10
tp98
Rp99
(I1
(I3
tp100
g57
I00
S'\xb1H4\xcc\xa6GI@&;\x19\xe4\xadjh@\xea\xea\x03]\x9aL\xfd\xbf'
p101
tp102
bsg62
S'Cell[4].axon[4]'
p103
sI23
I24
tp104
a(F2.2256074350853297
S'Cell[0].dend[15] syn_ = new AmpaNmda(0.7)'
p105
I0
(dp106
S'seg'
p107
F0.5
sS'hostfrom'
p108
F3.0
sS'gid'
p109
I34
sS'coords'
p110
g7
(g8
(I0
tp111
g10
tp112
Rp113
(I1
(I3
tp114
g14
(S'f8'
p115
I0
I1
tp116
Rp117
(I3
S'<'
p118
NNNI-1
I-1
I0
tp119
bI00
S'\x14`S\xaf\x81L=\xc0d\xe0X\x0e{-P\xc0\xa7\xb7\xd2\xda\xd3\xe8/\xc0'
p120
tp121
bsS'secnames'
p122
S'Cell[6].axon[65]'
p123
sI34
I4
tp124
a(F1.9305668140526122
S'Cell[8].dend[15] syn_ = new ExpSid(0.833333333333)'
p125
I8
(dp126
g107
F0.21428571428571427
sg108
F3.0
sg109
I39
sg110
g7
(g8
(I0
tp127
g10
tp128
Rp129
(I1
(I3
tp130
g117
I00
S'\xdd\xe2\xf7\xa0\xd7\x9b:\xc0\xee\x15\xba\x8a\xec\xb4\\\xc0\x00\x00\x00\x00\x00\x00$\xc0'
p131
tp132
bsg122
S'Cell[7].axon[2]'
p133
sI39
I44
tp134
a(F1.647774994849168
S'Cell[8].dend[15] syn_ = new ExpSid(0.5)'
p135
I8
(dp136
g107
F0.21428571428571427
sg108
F3.0
sg109
I9
sg110
g7
(g8
(I0
tp137
g10
tp138
Rp139
(I1
(I3
tp140
g117
I00
S'K\xc3\xe4}\x86\x977\xc0k)\x9d\xc3\xc8\xdfU\xc0z\xf5\x97\\\xfb\xde!\xc0'
p141
tp142
bsg122
S'Cell[1].axon[4]'
p143
sI9
I44
tp144
a(F1.3771348603219526
S'Cell[5].apic[24] syn_ = new AmpaNmda(0.5)'
p145
I5
(dp146
g107
F0.8333333333333333
sg108
F3.0
sg109
I44
sg110
g7
(g8
(I0
tp147
g10
tp148
Rp149
(I1
(I3
tp150
g117
I00
S'\xba&o\x80\xbd\xc5)\xc0F\xb2\x06\xe5/\x1c!@\n\xf6\xe6\x18C)\x1e\xc0'
p151
tp152
bsg122
S'Cell[8].axon[17]'
p153
sI44
I29
tp154
a(F2.4805614675814187
S'Cell[5].apic[15] syn_ = new AmpaNmda(0.5)'
p155
I5
(dp156
g107
F0.5
sg108
F3.0
sg109
I14
sg110
g7
(g8
(I0
tp157
g10
tp158
Rp159
(I1
(I3
tp160
g117
I00
S'\x00\x00\x00P\xe1z&@\x00\x00\x00\xc0\x1e\x851@\x00\x00\x00`\x8fB&@'
p161
tp162
bsg122
S'Cell[2].soma[0]'
p163
sI14
I29
tp164
a(F2.4508718489826213
S'Cell[4].dend[4] syn_ = new ExpSid(0.5)'
p165
I4
(dp166
S'seg'
p167
F0.8333333333333333
sS'hostfrom'
p168
F4.0
sS'gid'
p169
I5
sS'coords'
p170
g7
(g8
(I0
tp171
g10
tp172
Rp173
(I1
(I3
tp174
g14
(S'f8'
p175
I0
I1
tp176
Rp177
(I3
S'<'
p178
NNNI-1
I-1
I0
tp179
bI00
S'\xe6f\x1e\'\x84\xbdL\xc0\xb0<\x7f\x9b\x88\x860@\x0b\xb5\x03"\xff\xb6W\xc0'
p180
tp181
bsS'secnames'
p182
S'Cell[0].axon[9]'
p183
sI5
I24
tp184
a(F2.4266577245976904
S'Cell[2].dend[0] syn_ = new AmpaNmda(0.5)'
p185
I2
(dp186
g167
F0.5
sg168
F4.0
sg169
I10
sg170
g7
(g8
(I0
tp187
g10
tp188
Rp189
(I1
(I3
tp190
g177
I00
S'8?\x1f \x07R\x02\xc0m\xb9R(\xc8\x146@\x13s\xf3\x8f\x12u#@'
p191
tp192
bsg182
S'Cell[1].axon[4]'
p193
sI10
I14
tp194
a.