(lp0
(F2.211230624776667
S'Cell[1].apic[247] syn_ = new ExpSid(0.145161290323)'
p1
I1
(dp2
S'seg'
p3
F0.5
sS'hostfrom'
p4
F0.0
sS'gid'
p5
I0
sS'coords'
p6
cnumpy.core.multiarray
_reconstruct
p7
(cnumpy
ndarray
p8
(I0
tp9
S'b'
p10
tp11
Rp12
(I1
(I3
tp13
cnumpy
dtype
p14
(S'f8'
p15
I0
I1
tp16
Rp17
(I3
S'<'
p18
NNNI-1
I-1
I0
tp19
bI00
S'\x06\xa5\xad\x85v]c\xc0f\tZ\xd9\xd5.@\xc0f\tZyF\x8c!\xc0'
p20
tp21
bsS'secnames'
p22
S'Cell[0].axon[61]'
p23
sI0
I7
tp24
a(F1.9725259738585412
S'Cell[1].apic[266] syn_ = new ExpSid(0.928571428571)'
p25
I1
(dp26
g3
F0.5
sg4
F0.0
sg5
I0
sg6
g7
(g8
(I0
tp27
g10
tp28
Rp29
(I1
(I3
tp30
g17
I00
S'\x01\xe8\x85p\x81Zb\xc0L\x80\xf6\xb2\xaaCB\xc0\x8b\xfd9i\xd19\x1d\xc0'
p31
tp32
bsg22
S'Cell[0].axon[64]'
p33
sI0
I7
tp34
a(F2.4317515846455153
S'Cell[1].apic[171] syn_ = new ExpSid(0.0555555555556)'
p35
I1
(dp36
g3
F0.16666666666666666
sg4
F0.0
sg5
I8
sg6
g7
(g8
(I0
tp37
g10
tp38
Rp39
(I1
(I3
tp40
g17
I00
S'\x94i\xa5\x91\x04\xa0L@h\xcfR\xe8\xd0\x9ck\xc0X\xef)Pq\x9e\x12@'
p41
tp42
bsg22
S'Cell[2].axon[6]'
p43
sI8
I7
tp44
a(F1.2664589332509082
S'Cell[0].dend[41] syn_ = new FastInhib(0.9)'
p45
I0
(dp46
g3
F0.5
sg4
F0.0
sg5
I12
sg6
g7
(g8
(I0
tp47
g10
tp48
Rp49
(I1
(I3
tp50
g17
I00
S'\xa8*Lc\x05\xdeH@u\xcai#N\xb6S@\x17\xdf?Y\xfa\xe9-\xc0'
p51
tp52
bsg22
S'Cell[3].axon[329]'
p53
sI12
I3
tp54
a(F1.6801093940165461
S'Cell[0].dend[17] syn_ = new FastInhib(0.5)'
p55
I0
(dp56
g3
F0.5
sg4
F0.0
sg5
I12
sg6
g7
(g8
(I0
tp57
g10
tp58
Rp59
(I1
(I3
tp60
g17
I00
S"kK']\xfa\r3\xc0\x9bV\x99&\xdf\x96O@\n&\\\xcd.\xad:\xc0"
p61
tp62
bsg22
S'Cell[3].axon[529]'
p63
sI12
I3
tp64
a(F2.29802271903784
S'Cell[3].dend[40] syn_ = new FastInhib(0.5)'
p65
I3
(dp66
S'seg'
p67
F0.8333333333333333
sS'hostfrom'
p68
F1.0
sS'gid'
p69
I1
sS'coords'
p70
g7
(g8
(I0
tp71
g10
tp72
Rp73
(I1
(I3
tp74
g14
(S'f8'
p75
I0
I1
tp76
Rp77
(I3
S'<'
p78
NNNI-1
I-1
I0
tp79
bI00
S"\xac\xbf'\x8b&sU@\xfaA\x98\xda\x12\x01L\xc0\x00\x00\x00@33/\xc0"
p80
tp81
bsS'secnames'
p82
S'Cell[0].axon[54]'
p83
sI1
I15
tp84
a(F1.7599011405446614
S'Cell[2].dend[25] syn_ = new ExpSid(0.166666666667)'
p85
I2
(dp86
g67
F0.49999999999999994
sg68
F1.0
sg69
I13
sg70
g7
(g8
(I0
tp87
g10
tp88
Rp89
(I1
(I3
tp90
g77
I00
S'\xe6U\xad\xd8j\t8\xc0F\x9a\x16%\x8a\x1dR\xc0\x00\x00\x00\x80=\x8a5\xc0'
p91
tp92
bsg82
S'Cell[3].axon[12]'
p93
sI13
I11
tp94
a(F1.6545795035013955
S'Cell[2].dend[22] syn_ = new ExpSid(0.5)'
p95
I2
(dp96
g67
F0.5
sg68
F1.0
sg69
I9
sg70
g7
(g8
(I0
tp97
g10
tp98
Rp99
(I1
(I3
tp100
g77
I00
S'N3\x87\x82\x9d\x1aD\xc0\xb0p\xb5\xaeD0R\xc0\x00\x00\x00\x80\xeb\xd1$\xc0'
p101
tp102
bsg82
S'Cell[2].axon[80]'
p103
sI9
I11
tp104
a(F2.1046543675114036
S'Cell[2].apic[34] syn_ = new ExpSid(0.5)'
p105
I2
(dp106
g67
F0.1
sg68
F1.0
sg69
I9
sg70
g7
(g8
(I0
tp107
g10
tp108
Rp109
(I1
(I3
tp110
g77
I00
S'\x05_2\x89v\x91V\xc0(\xed\xf8\x95\xf6\xd29@\x01\x94\x17\xac\x11$4\xc0'
p111
tp112
bsg82
S'Cell[2].axon[93]'
p113
sI9
I11
tp114
a(F1.8423948897348013
S'Cell[0].dend[15] syn_ = new FastInhib(0.5)'
p115
I0
(dp116
g67
F0.16666666666666666
sg68
F1.0
sg69
I9
sg70
g7
(g8
(I0
tp117
g10
tp118
Rp119
(I1
(I3
tp120
g77
I00
S'\x0c\xc2\xda\x1c\x16\xaf&\xc0\xb8\xe2\xef}\x14\x83?@\x00\x00\x00\xa0G\xc1@\xc0'
p121
tp122
bsg82
S'Cell[2].axon[103]'
p123
sI9
I3
tp124
a(F2.007947940784796
S'Cell[2].apic[20] syn_ = new ExpSid(0.5)'
p125
I2
(dp126
g67
F0.16666666666666666
sg68
F1.0
sg69
I9
sg70
g7
(g8
(I0
tp127
g10
tp128
Rp129
(I1
(I3
tp130
g77
I00
S'\xdb\xebe\xcf&\x15C@\x7f8^V\x83\x8d>@}\xcc\xd1\xa8\x12#M\xc0'
p131
tp132
bsg82
S'Cell[2].axon[109]'
p133
sI9
I11
tp134
a(F1.695151572506007
S'Cell[2].apic[33] syn_ = new ExpSid(0.166666666667)'
p135
I2
(dp136
g67
F0.5
sg68
F1.0
sg69
I9
sg70
g7
(g8
(I0
tp137
g10
tp138
Rp139
(I1
(I3
tp140
g77
I00
S'\x15\xfb\x02\xbe\x8e\x01E\xc0\xfa\x1d\x86\x00"\x1bO@\x05R\xc0q\xf8\x1a8\xc0'
p141
tp142
bsg82
S'Cell[2].axon[133]'
p143
sI9
I11
tp144
a(F2.3389803578472224
S'Cell[2].apic[30] syn_ = new ExpSid(0.5)'
p145
I2
(dp146
g67
F0.07142857142857142
sg68
F1.0
sg69
I9
sg70
g7
(g8
(I0
tp147
g10
tp148
Rp149
(I1
(I3
tp150
g77
I00
S'\xea\x91V\x047gG\xc0U\xe5\xc1\x8e\xf7\xd1R@\xcc\xf7\x8a8\xa1\xb80\xc0'
p151
tp152
bsg82
S'Cell[2].axon[147]'
p153
sI9
I11
tp154
a(F2.324422208745311
S'Cell[0].apic[2] syn_ = new FastInhib(0.166666666667)'
p155
I0
(dp156
g67
F0.8333333333333333
sg68
F1.0
sg69
I9
sg70
g7
(g8
(I0
tp157
g10
tp158
Rp159
(I1
(I3
tp160
g77
I00
S'\xcaP\xc5\xb2Cj(\xc0\x10\xd6$\xac\x86\xcaH\xc0\xeb{:\xb3\xd6\xae\x0c\xc0'
p161
tp162
bsg82
S'Cell[2].axon[157]'
p163
sI9
I3
tp164
a(F1.8381607510617364
S'Cell[3].dend[8] syn_ = new FastInhib(0.5)'
p165
I3
(dp166
g67
F0.07142857142857142
sg68
F1.0
sg69
I9
sg70
g7
(g8
(I0
tp167
g10
tp168
Rp169
(I1
(I3
tp170
g77
I00
S'\x9d/\xea\xd2c\x0c5\xc0\x9e\x0cf\xd8xGN\xc0\x00\x00\x00\x80\xebQ\xf4?'
p171
tp172
bsg82
S'Cell[2].axon[158]'
p173
sI9
I15
tp174
a(F1.794905181099599
S'Cell[3].dend[36] syn_ = new FastInhib(0.7)'
p175
I3
(dp176
g67
F0.6428571428571428
sg68
F1.0
sg69
I9
sg70
g7
(g8
(I0
tp177
g10
tp178
Rp179
(I1
(I3
tp180
g77
I00
S"\xd0\xe9\xf5\xc1\xb3\x16E@\xf9)\x86S\x99\xc1\t@\x98!\xde\xfb'\x03W\xc0"
p181
tp182
bsg82
S'Cell[2].axon[202]'
p183
sI9
I15
tp184
a(F2.473526100594272
S'Cell[3].dend[53] syn_ = new FastInhib(0.833333333333)'
p185
I3
(dp186
g67
F0.16666666666666666
sg68
F1.0
sg69
I9
sg70
g7
(g8
(I0
tp187
g10
tp188
Rp189
(I1
(I3
tp190
g77
I00
S'\xc0\x8bX8\x1f\xb1+@\x05\x94L\xfd\xe4QS\xc0\x1b\xb8\x84e`t)@'
p191
tp192
bsg82
S'Cell[2].axon[305]'
p193
sI9
I15
tp194
a(F1.931237061310055
S'Cell[0].dend[44] syn_ = new FastInhib(0.166666666667)'
p195
I0
(dp196
g67
F0.1
sg68
F1.0
sg69
I9
sg70
g7
(g8
(I0
tp197
g10
tp198
Rp199
(I1
(I3
tp200
g77
I00
S'\xe1x\xd6\xc0\xb7\x8b"@\xeb\xea~\x1d\xb0\xc5\xf4\xbf"\x1b\x97)\x10*\x07\xc0'
p201
tp202
bsg82
S'Cell[2].axon[313]'
p203
sI9
I3
tp204
a(F1.1976829877747082
S'Cell[3].dend[37] syn_ = new FastInhib(0.3)'
p205
I3
(dp206
g67
F0.16666666666666666
sg68
F1.0
sg69
I9
sg70
g7
(g8
(I0
tp207
g10
tp208
Rp209
(I1
(I3
tp210
g77
I00
S"I\x98\xbc\xa9\xfd\x16E@I\x98\xbc\x89'S6@\x00\x00\x00\x00)\x9c5\xc0"
p211
tp212
bsg82
S'Cell[2].axon[377]'
p213
sI9
I15
tp214
a(F1.8754716946199852
S'Cell[2].dend[26] syn_ = new ExpSid(0.5)'
p215
I2
(dp216
S'seg'
p217
F0.5
sS'hostfrom'
p218
F2.0
sS'gid'
p219
I18
sS'coords'
p220
g7
(g8
(I0
tp221
g10
tp222
Rp223
(I1
(I3
tp224
g14
(S'f8'
p225
I0
I1
tp226
Rp227
(I3
S'<'
p228
NNNI-1
I-1
I0
tp229
bI00
S'\x1a\xb8\xf5\xcd\xcb\xa2\r\xc06\x98\xc5\rH\x00O\xc0\x9c\xea+\xa7x\x8a2\xc0'
p230
tp231
bsS'secnames'
p232
S'Cell[4].axon[32]'
p233
sI18
I11
tp234
a(F1.2704452944318596
S'Cell[0].dend[0] syn_ = new FastInhib(0.5)'
p235
I0
(dp236
g217
F0.5
sg218
F2.0
sg219
I18
sg220
g7
(g8
(I0
tp237
g10
tp238
Rp239
(I1
(I3
tp240
g227
I00
S'\x19\xd5\x19\x01\xbdb0\xc0\x8c(\xbe\x8a9\xef%\xc0<\x02}\x11\x8a\x1a\xef\xbf'
p241
tp242
bsg232
S'Cell[4].axon[162]'
p243
sI18
I3
tp244
a(F1.7737362798460803
S'Cell[0].dend[41] syn_ = new FastInhib(0.3)'
p245
I0
(dp246
g217
F0.5
sg218
F2.0
sg219
I18
sg220
g7
(g8
(I0
tp247
g10
tp248
Rp249
(I1
(I3
tp250
g227
I00
S'\x18\xe79\xab,\x907@\x1d\x85\xd0\xb8\x8d\x13;@W\x137\xb6B\xcb\xfb\xbf'
p251
tp252
bsg232
S'Cell[4].axon[207]'
p253
sI18
I3
tp254
a(F2.1225788243740293
S'Cell[3].dend[27] syn_ = new FastInhib(0.833333333333)'
p255
I3
(dp256
g217
F0.5
sg218
F2.0
sg219
I2
sg220
g7
(g8
(I0
tp257
g10
tp258
Rp259
(I1
(I3
tp260
g227
I00
S'\xe8\x04V\x99\xce\xd8Q\xc0\x9e\x0e\xb0\x1bRvV\xc0\xc0_\xcd^5y7@'
p261
tp262
bsg232
S'Cell[0].axon[7]'
p263
sI2
I15
tp264
a(F1.8947224134854823
S'Cell[3].dend[27] syn_ = new FastInhib(0.833333333333)'
p265
I3
(dp266
g217
F0.5
sg218
F2.0
sg219
I2
sg220
g7
(g8
(I0
tp267
g10
tp268
Rp269
(I1
(I3
tp270
g227
I00
S'\x00\x00\x00\xe0\xa3xR\xc0\x00\x00\x00\x10\xae\xb7V\xc0\x00\x00\x00\xd0\xccL9@'
p271
tp272
bsg232
S'Cell[0].axon[12]'
p273
sI2
I15
tp274
a(F1.8100626184757607
S'Cell[3].dend[63] syn_ = new FastInhib(0.5)'
p275
I3
(dp276
g217
F0.8333333333333333
sg218
F2.0
sg219
I6
sg220
g7
(g8
(I0
tp277
g10
tp278
Rp279
(I1
(I3
tp280
g227
I00
S'j\xfb\xc1^\xd6\xbb\x1a@\xef\xcdF\xc9\x16,l@\x00\x00\x00\x80\x14.%@'
p281
tp282
bsg232
S'Cell[1].axon[5]'
p283
sI6
I15
tp284
a(F2.201021198199034
S'Cell[0].dend[6] syn_ = new FastInhib(0.5)'
p285
I0
(dp286
g217
F0.07142857142857142
sg218
F2.0
sg219
I6
sg220
g7
(g8
(I0
tp287
g10
tp288
Rp289
(I1
(I3
tp290
g227
I00
S'\xeb\xa4\xeb\xaa\x9a\xf81\xc0\xe7R\xaa/"6\x1b\xc0\xa9\xc8q\x08\x9d\xbc\xe7\xbf'
p291
tp292
bsg232
S'Cell[1].axon[230]'
p293
sI6
I3
tp294
a(F1.2721048873461596
S'Cell[0].dend[39] syn_ = new FastInhib(0.5)'
p295
I0
(dp296
S'seg'
p297
F0.5
sS'hostfrom'
p298
F3.0
sS'gid'
p299
I15
sS'coords'
p300
g7
(g8
(I0
tp301
g10
tp302
Rp303
(I1
(I3
tp304
g14
(S'f8'
p305
I0
I1
tp306
Rp307
(I3
S'<'
p308
NNNI-1
I-1
I0
tp309
bI00
S'\x0c\x00\x00\xa0\xf5(\x19@\x00\x00\x00\xa0G\xe1\x1b\xc0\x00\x00\x00@\xe1z\xf8\xbf'
p310
tp311
bsS'secnames'
p312
S'Cell[3].soma[0]'
p313
sI15
I3
tp314
a(F1.0440173923125984
S'Cell[2].dend[46] syn_ = new ExpSid(0.3)'
p315
I2
(dp316
g297
F0.8333333333333333
sg298
F3.0
sg299
I15
sg300
g7
(g8
(I0
tp317
g10
tp318
Rp319
(I1
(I3
tp320
g307
I00
S':y@\x173\xe76@\x03]\xecw\xcd\xceL\xc0aH\x12\x0e\xd6\xdf\xf3\xbf'
p321
tp322
bsg312
S'Cell[3].axon[102]'
p323
sI15
I11
tp324
a(F1.230286993563834
S'Cell[1].apic[154] syn_ = new ExpSid(0.5)'
p325
I1
(dp326
g297
F0.5
sg298
F3.0
sg299
I15
sg300
g7
(g8
(I0
tp327
g10
tp328
Rp329
(I1
(I3
tp330
g307
I00
S'\x00\x00\x00p=\xcaA\xc0\x00\x00\x00\xe0z\xc0i\xc0\x00\x00\x00\xa8G\xe1\xd2\xbf'
p331
tp332
bsg312
S'Cell[3].axon[140]'
p333
sI15
I7
tp334
a(F2.402078250842083
S'Cell[1].apic[253] syn_ = new ExpSid(0.166666666667)'
p335
I1
(dp336
g297
F0.7
sg298
F3.0
sg299
I15
sg300
g7
(g8
(I0
tp337
g10
tp338
Rp339
(I1
(I3
tp340
g307
I00
S'\xd3\x18\xcc4\xff\xd1U\xc0\x01.\xb9\xb2\x8c\x8bX\xc0\xa1\xb4d\xa0g\x82\x1e@'
p341
tp342
bsg312
S'Cell[3].axon[176]'
p343
sI15
I7
tp344
a(F2.249971406585706
S'Cell[0].dend[23] syn_ = new FastInhib(0.166666666667)'
p345
I0
(dp346
g297
F0.5
sg298
F3.0
sg299
I15
sg300
g7
(g8
(I0
tp347
g10
tp348
Rp349
(I1
(I3
tp350
g307
I00
S'\x85\xe2\x13\xc0\x1dT6\xc0\xc9\xe9\xb4\x0f\r F@\x9e\xc3\xe43\xf0\xd5*\xc0'
p351
tp352
bsg312
S'Cell[3].axon[315]'
p353
sI15
I3
tp354
a(F1.6526989333873188
S'Cell[1].apic[79] syn_ = new ExpSid(0.1)'
p355
I1
(dp356
g297
F0.5
sg298
F3.0
sg299
I3
sg300
g7
(g8
(I0
tp357
g10
tp358
Rp359
(I1
(I3
tp360
g307
I00
S"\x86\xc5\xd3\xa6H\xc27@\xeb\xdc10'zX@\x00\x00\x00\xc0\xcc\xcc\x10\xc0"
p361
tp362
bsg312
S'Cell[0].axon[2]'
p363
sI3
I7
tp364
a(F2.3770596379575193
S'Cell[1].apic[269] syn_ = new ExpSid(0.5)'
p365
I1
(dp366
g297
F0.5
sg298
F3.0
sg299
I3
sg300
g7
(g8
(I0
tp367
g10
tp368
Rp369
(I1
(I3
tp370
g307
I00
S'vl\x19\xc3\x07\x11@\xc0$\xb3\x18$YDY\xc0\x00\x00\x00\xa0\x99\x99&\xc0'
p371
tp372
bsg312
S'Cell[0].axon[269]'
p373
sI3
I7
tp374
a(F2.3204676915272344
S'Cell[3].dend[0] syn_ = new FastInhib(0.5)'
p375
I3
(dp376
g297
F0.30000000000000004
sg298
F3.0
sg299
I19
sg300
g7
(g8
(I0
tp377
g10
tp378
Rp379
(I1
(I3
tp380
g307
I00
S'\xeb\x9a\xc0\xb9?P\xe4\xbf\x07]\x81\xdf\xcf\x1b5\xc0\xecA\xa1}3\xe8\x14\xc0'
p381
tp382
bsg312
S'Cell[4].axon[0]'
p383
sI19
I15
tp384
a.